
balance.elf:     file format elf32-littlearm


Disassembly of section .program_ptr:

00000000 <_text>:
   0:	00000000 	andeq	r0, r0, r0

Disassembly of section .init_fun:

00000004 <init>:
   4:	4b3a      	ldr	r3, [pc, #232]	; (f0 <init+0xec>)
   6:	e92d 47f3 	stmdb	sp!, {r0, r1, r4, r5, r6, r7, r8, r9, sl, lr}
   a:	447b      	add	r3, pc
   c:	4c36      	ldr	r4, [pc, #216]	; (e8 <init+0xe4>)
   e:	681b      	ldr	r3, [r3, #0]
  10:	f8d4 30b8 	ldr.w	r3, [r4, #184]	; 0xb8
  14:	4680      	mov	r8, r0
  16:	f44f 701c 	mov.w	r0, #624	; 0x270
  1a:	4798      	blx	r3
  1c:	2100      	movs	r1, #0
  1e:	f44f 721c 	mov.w	r2, #624	; 0x270
  22:	4606      	mov	r6, r0
  24:	f005 f8f4 	bl	5210 <memset>
  28:	f8d4 30b8 	ldr.w	r3, [r4, #184]	; 0xb8
  2c:	20fc      	movs	r0, #252	; 0xfc
  2e:	4798      	blx	r3
  30:	f10d 0904 	add.w	r9, sp, #4
  34:	4607      	mov	r7, r0
  36:	f8d4 32b4 	ldr.w	r3, [r4, #692]	; 0x2b4
  3a:	2100      	movs	r1, #0
  3c:	4648      	mov	r0, r9
  3e:	4798      	blx	r3
  40:	b1c8      	cbz	r0, 76 <init+0x72>
  42:	4b2a      	ldr	r3, [pc, #168]	; (ec <init+0xe8>)
  44:	9a01      	ldr	r2, [sp, #4]
  46:	429a      	cmp	r2, r3
  48:	d115      	bne.n	76 <init+0x72>
  4a:	f1a7 0a04 	sub.w	sl, r7, #4
  4e:	2500      	movs	r5, #0
  50:	3501      	adds	r5, #1
  52:	f8d4 32b4 	ldr.w	r3, [r4, #692]	; 0x2b4
  56:	4629      	mov	r1, r5
  58:	4648      	mov	r0, r9
  5a:	4798      	blx	r3
  5c:	b158      	cbz	r0, 76 <init+0x72>
  5e:	9b01      	ldr	r3, [sp, #4]
  60:	f84a 3f04 	str.w	r3, [sl, #4]!
  64:	2d3f      	cmp	r5, #63	; 0x3f
  66:	d1f3      	bne.n	50 <init+0x4c>
  68:	22f8      	movs	r2, #248	; 0xf8
  6a:	4639      	mov	r1, r7
  6c:	f106 0008 	add.w	r0, r6, #8
  70:	f001 ff7e 	bl	1f70 <memcpy>
  74:	e003      	b.n	7e <init+0x7a>
  76:	f106 0008 	add.w	r0, r6, #8
  7a:	f003 fff3 	bl	4064 <confparser_set_defaults_balance_config>
  7e:	f8d4 30bc 	ldr.w	r3, [r4, #188]	; 0xbc
  82:	4638      	mov	r0, r7
  84:	4798      	blx	r3
  86:	4b1b      	ldr	r3, [pc, #108]	; (f4 <init+0xf0>)
  88:	4a1b      	ldr	r2, [pc, #108]	; (f8 <init+0xf4>)
  8a:	491c      	ldr	r1, [pc, #112]	; (fc <init+0xf8>)
  8c:	481c      	ldr	r0, [pc, #112]	; (100 <init+0xfc>)
  8e:	447b      	add	r3, pc
  90:	e9c8 3600 	strd	r3, r6, [r8]
  94:	447a      	add	r2, pc
  96:	f8d4 32d8 	ldr.w	r3, [r4, #728]	; 0x2d8
  9a:	4479      	add	r1, pc
  9c:	4478      	add	r0, pc
  9e:	4798      	blx	r3
  a0:	4630      	mov	r0, r6
  a2:	f002 fc5f 	bl	2964 <configure>
  a6:	4a17      	ldr	r2, [pc, #92]	; (104 <init+0x100>)
  a8:	4817      	ldr	r0, [pc, #92]	; (108 <init+0x104>)
  aa:	f8d4 50c0 	ldr.w	r5, [r4, #192]	; 0xc0
  ae:	4633      	mov	r3, r6
  b0:	447a      	add	r2, pc
  b2:	f44f 6100 	mov.w	r1, #2048	; 0x800
  b6:	4478      	add	r0, pc
  b8:	47a8      	blx	r5
  ba:	4a14      	ldr	r2, [pc, #80]	; (10c <init+0x108>)
  bc:	6030      	str	r0, [r6, #0]
  be:	4814      	ldr	r0, [pc, #80]	; (110 <init+0x10c>)
  c0:	f8d4 50c0 	ldr.w	r5, [r4, #192]	; 0xc0
  c4:	4633      	mov	r3, r6
  c6:	447a      	add	r2, pc
  c8:	f44f 6100 	mov.w	r1, #2048	; 0x800
  cc:	4478      	add	r0, pc
  ce:	47a8      	blx	r5
  d0:	4910      	ldr	r1, [pc, #64]	; (114 <init+0x110>)
  d2:	6070      	str	r0, [r6, #4]
  d4:	4810      	ldr	r0, [pc, #64]	; (118 <init+0x114>)
  d6:	6823      	ldr	r3, [r4, #0]
  d8:	4479      	add	r1, pc
  da:	4478      	add	r0, pc
  dc:	4798      	blx	r3
  de:	2001      	movs	r0, #1
  e0:	b002      	add	sp, #8
  e2:	e8bd 87f0 	ldmia.w	sp!, {r4, r5, r6, r7, r8, r9, sl, pc}
  e6:	bf00      	nop
  e8:	1000f800 	andne	pc, r0, r0, lsl #16
  ec:	f44adb6a 			; <UNDEFINED> instruction: 0xf44adb6a
  f0:	fffffff2 			; <UNDEFINED> instruction: 0xfffffff2
  f4:	0000269b 	muleq	r0, fp, r6
  f8:	00002671 	andeq	r2, r0, r1, ror r6
  fc:	00002a97 	muleq	r0, r7, sl
 100:	00002781 	andeq	r2, r0, r1, lsl #15
 104:	0000200c 	andeq	r2, r0, ip
 108:	00002b07 	andeq	r2, r0, r7, lsl #22
 10c:	00002003 	andeq	r2, r0, r3
 110:	00002691 	muleq	r0, r1, r6
 114:	00002859 	andeq	r2, r0, r9, asr r8
 118:	00002005 	andeq	r2, r0, r5

Disassembly of section .data.data_balance_config_:

0000011c <data_balance_config_>:
     11c:	6c8d0100 	stfvss	f0, [sp], {0}
     120:	9dedda78 			; <UNDEFINED> instruction: 0x9dedda78
     124:	c6db72eb 	ldrbgt	r7, [fp], fp, ror #5
     128:	9fff8092 	svcls	0x00ff8092
     12c:	2aa498a7 	bcs	fe9263d0 <memset+0xfe9211c0>
     130:	f1255c89 			; <UNDEFINED> instruction: 0xf1255c89
     134:	c7155b22 	ldrgt	r5, [r5, -r2, lsr #22]
     138:	268a7c66 	strcs	r7, [sl], r6, ror #24
     13c:	ea658b29 	b	1962de8 <memset+0x195dbd8>
     140:	59ca2872 	stmibpl	sl, {r1, r4, r5, r6, fp, sp}^
     144:	90283f9f 	mlals	r8, pc, pc, r3	; <UNPREDICTABLE>
     148:	0c739218 	lfmeq	f1, 3, [r3], #-96	; 0xffffffa0
     14c:	a22e3002 	eorge	r3, lr, #2
     150:	a77dade8 	ldrbge	sl, [sp, -r8, ror #27]!
     154:	b27d867d 	rsbslt	r8, sp, #131072000	; 0x7d00000
     158:	f0199eed 			; <UNDEFINED> instruction: 0xf0199eed
     15c:	2280800a 	addcs	r8, r0, #10
     160:	a934a410 	ldmdbge	r4!, {r4, sl, sp, pc}
     164:	7a612254 	bvc	1848abc <memset+0x18438ac>
     168:	87cf5370 			; <UNDEFINED> instruction: 0x87cf5370
     16c:	ee9e9e9e 	mrc	14, 4, r9, cr14, cr14, {4}
     170:	261f3fda 			; <UNDEFINED> instruction: 0x261f3fda
     174:	aea7b926 	vfmage.f16	s22, s14, s13	; <UNPREDICTABLE>
     178:	cfeb6cc7 	svcgt	0x00eb6cc7
     17c:	caa5ab9f 	bgt	fe96b000 <memset+0xfe965df0>
     180:	035a84cf 	cmpeq	sl, #-822083584	; 0xcf000000
     184:	e8d660db 	ldm	r6, {r0, r1, r3, r4, r6, r7, sp, lr}^
     188:	7aef9fcf 	bvc	ffbe80cc <memset+0xffbe2ebc>
     18c:	7f6f27e7 	svcvc	0x006f27e7
     190:	7f87e7fe 	svcvc	0x0087e7fe
     194:	35b61ad4 	ldrcc	r1, [r6, #2772]!	; 0xad4
     198:	dd1ba364 	ldcle	3, cr10, [fp, #-400]	; 0xfffffe70
     19c:	87de27d5 			; <UNDEFINED> instruction: 0x87de27d5
     1a0:	a7f8107f 			; <UNDEFINED> instruction: 0xa7f8107f
     1a4:	3f0bfcb6 	svccc	0x000bfcb6
     1a8:	9a32e030 	bls	cb8270 <memset+0xcb3060>
     1ac:	e2e84fa5 	rsc	r4, r8, #660	; 0x294
     1b0:	6d316f28 	ldcvs	15, cr6, [r1, #-160]!	; 0xffffff60
     1b4:	8785746b 	strhi	r7, [r5, fp, ror #8]
     1b8:	b5a2db2d 	strlt	sp, [r2, #2861]!	; 0xb2d
     1bc:	55d7fcf2 	ldrbpl	pc, [r7, #3314]	; 0xcf2	; <UNPREDICTABLE>
     1c0:	d0e67f29 	rscle	r7, r6, r9, lsr #30
     1c4:	656baf0f 	strbvs	sl, [fp, #-3855]!	; 0xfffff0f1
     1c8:	26b5fffe 			; <UNDEFINED> instruction: 0x26b5fffe
     1cc:	09bcb757 	ldmibeq	ip!, {r0, r1, r2, r4, r6, r8, r9, sl, ip, sp, pc}
     1d0:	6fbd7df3 	svcvs	0x00bd7df3
     1d4:	90150fd2 			; <UNDEFINED> instruction: 0x90150fd2
     1d8:	2ab03959 	bcs	fec0e744 <memset+0xfec09534>
     1dc:	e06f506c 	rsb	r5, pc, ip, rrx
     1e0:	2787c732 			; <UNDEFINED> instruction: 0x2787c732
     1e4:	e9abf0fa 	stmib	fp!, {r1, r3, r4, r5, r6, r7, ip, sp, lr, pc}
     1e8:	79a9ffbf 	stmibvc	r9!, {r0, r1, r2, r3, r4, r5, r7, r8, r9, sl, fp, ip, sp, lr, pc}
     1ec:	bd7de8dd 	ldcllt	8, cr14, [sp, #-884]!	; 0xfffffc8c
     1f0:	de8b9169 	sinleez	f1, #1.0
     1f4:	dcdc8765 	ldclle	7, cr8, [ip], {101}	; 0x65
     1f8:	1bb4ec7d 	blne	fed3b3f4 <memset+0xfed361e4>
     1fc:	81efd7e4 	mvnhi	sp, r4, ror #15
     200:	293fbfed 	ldmdbcs	pc!, {r0, r2, r3, r5, r6, r7, r8, r9, sl, fp, ip, sp, pc}	; <UNPREDICTABLE>
     204:	dd7aff97 	ldclle	15, cr15, [sl, #-604]!	; 0xfffffda4
     208:	bd9b9728 	ldclt	7, cr9, [fp, #160]	; 0xa0
     20c:	537d68a6 	cmnpl	sp, #10878976	; 0xa60000
     210:	adcb94aa 	cfstrdge	mvd9, [fp, #680]	; 0x2a8
     214:	852ad12b 	strhi	sp, [sl, #-299]!	; 0xfffffed5
     218:	bcefbec6 	stcllt	14, cr11, [pc], #792	; 538 <data_balance_config_+0x41c>
     21c:	d3a7972b 			; <UNDEFINED> instruction: 0xd3a7972b
     220:	bafa6969 	blt	ffe9a7cc <memset+0xffe955bc>
     224:	72a3bb64 	adcvc	fp, r3, #100, 22	; 0x19000
     228:	b6ee5baf 	strbtlt	r5, [lr], pc, lsr #23
     22c:	7f63271a 	svcvc	0x0063271a
     230:	94a9be62 	strtls	fp, [r9], #3682	; 0xe62
     234:	0365df3d 	cmneq	r5, #61, 30	; 0xf4
     238:	86f864bf 			; <UNDEFINED> instruction: 0x86f864bf
     23c:	e475ff90 	ldrbt	pc, [r5], #-3984	; 0xfffff070	; <UNPREDICTABLE>
     240:	5e07ffbf 	mcrpl	15, 0, pc, cr7, cr15, {5}	; <UNPREDICTABLE>
     244:	17f1db18 			; <UNDEFINED> instruction: 0x17f1db18
     248:	8dd533fe 	ldclhi	3, cr3, [r5, #1016]	; 0x3f8
     24c:	f509e7f0 			; <UNDEFINED> instruction: 0xf509e7f0
     250:	e9af8275 	stmib	pc!, {r0, r2, r4, r5, r6, r9, pc}	; <UNPREDICTABLE>
     254:	3be1d14f 	blcc	ff874798 <memset+0xff86f588>
     258:	f4fb1ff4 			; <UNDEFINED> instruction: 0xf4fb1ff4
     25c:	859797c1 	ldrhi	r9, [r7, #1985]	; 0x7c1
     260:	cb53e917 	blgt	14fa6c4 <memset+0x14f54b4>
     264:	7955ad97 	ldmdbvc	r5, {r0, r1, r2, r4, r7, r8, sl, fp, sp, pc}^
     268:	f7761cb4 			; <UNDEFINED> instruction: 0xf7761cb4
     26c:	094999fc 	stmdbeq	r9, {r2, r3, r4, r5, r6, r7, r8, fp, ip, pc}^
     270:	812925be 			; <UNDEFINED> instruction: 0x812925be
     274:	cf03cb5d 	svcgt	0x0003cb5d
     278:	73bcba5b 			; <UNDEFINED> instruction: 0x73bcba5b
     27c:	fe464c4c 	cdp2	12, 4, cr4, cr6, cr12, {2}
     280:	ccc74c9b 	stclgt	12, cr4, [r7], {155}	; 0x9b
     284:	a39e27a7 	orrsge	r2, lr, #43778048	; 0x29c0000
     288:	e23be80f 	eors	lr, fp, #983040	; 0xf0000
     28c:	ea64f4b8 	b	193d574 <memset+0x1938364>
     290:	f27bceea 			; <UNDEFINED> instruction: 0xf27bceea
     294:	cafefc3f 	bgt	fffbf398 <memset+0xfffba188>
     298:	69e14cfc 	stmibvs	r1!, {r2, r3, r4, r5, r6, r7, sl, fp, lr}^
     29c:	d8b7cbcb 	ldmle	r7!, {r0, r1, r3, r6, r7, r8, r9, fp, lr, pc}
     2a0:	e1198db7 			; <UNDEFINED> instruction: 0xe1198db7
     2a4:	641af2cd 	ldrvs	pc, [sl], #-717	; 0xfffffd33
     2a8:	32753708 	rsbscc	r3, r5, #8, 14	; 0x200000
     2ac:	9ccc27d4 	stclls	7, cr2, [ip], {212}	; 0xd4
     2b0:	6badfbbd 	blvs	feb7f1ac <memset+0xfeb79f9c>
     2b4:	fedf6df7 	vudot.u8	q11, <illegal reg q15.5>, d7[1]
     2b8:	c7913ded 	ldrgt	r3, [r1, sp, ror #27]
     2bc:	c68d94a7 	strgt	r9, [sp], r7, lsr #9
     2c0:	9537bbfe 	ldrls	fp, [r7, #-3070]!	; 0xfffff402
     2c4:	bbc03c8a 	bllt	ff00f4f4 <memset+0xff00a2e4>
     2c8:	776cb3be 			; <UNDEFINED> instruction: 0x776cb3be
     2cc:	d7ef9ba2 	strble	r9, [pc, r2, lsr #23]!
     2d0:	72b38b5e 	adcsvc	r8, r3, #96256	; 0x17800
     2d4:	feef93e2 	cdp2	3, 14, cr9, cr15, cr2, {7}
     2d8:	34aa0389 	strtcc	r0, [sl], #905	; 0x389
     2dc:	9f1b1b82 	svcls	0x001b1b82
     2e0:	a3bd53e0 			; <UNDEFINED> instruction: 0xa3bd53e0
     2e4:	bd9fc713 	ldclt	7, cr12, [pc, #76]	; 338 <data_balance_config_+0x21c>
     2e8:	1ddd1327 	ldclne	3, cr1, [sp, #156]	; 0x9c
     2ec:	b7c4eb31 			; <UNDEFINED> instruction: 0xb7c4eb31
     2f0:	e715779d 			; <UNDEFINED> instruction: 0xe715779d
     2f4:	5c3bfe61 	ldcpl	14, cr15, [fp], #-388	; 0xfffffe7c
     2f8:	2b27b7d9 	blcs	9ee264 <memset+0x9e9054>
     2fc:	f43a4c87 			; <UNDEFINED> instruction: 0xf43a4c87
     300:	fcb80e57 	ldc2	14, cr0, [r8], #348	; 0x15c
     304:	3c11f876 	ldccc	8, cr15, [r1], {118}	; 0x76
     308:	07b4df7f 			; <UNDEFINED> instruction: 0x07b4df7f
     30c:	65984edf 	ldrvs	r4, [r8, #3807]	; 0xedf
     310:	077d5bc0 	ldrbeq	r5, [sp, -r0, asr #23]!
     314:	6c2f88b7 	stcvs	8, cr8, [pc], #-732	; 40 <init+0x3c>
     318:	2d082bfe 	vstrcs	d2, [r8, #-1016]	; 0xfffffc08
     31c:	bb3f906e 	bllt	fe44dc <memset+0xfdf2cc>
     320:	65d778bb 	ldrbvs	r7, [r7, #2235]	; 0x8bb
     324:	be13fe67 	cdplt	14, 1, cr15, cr3, cr7, {3}
     328:	92bbc592 	adcsls	ip, fp, #612368384	; 0x24800000
     32c:	795ada7f 	ldmdbvc	sl, {r0, r1, r2, r3, r4, r5, r6, r9, fp, ip, lr, pc}^
     330:	f556db59 			; <UNDEFINED> instruction: 0xf556db59
     334:	43a4d070 			; <UNDEFINED> instruction: 0x43a4d070
     338:	b50fd166 	strlt	sp, [pc, #-358]	; 1da <data_balance_config_+0xbe>
     33c:	6ad3f872 	bvs	ff4fe50c <memset+0xff4f92fc>
     340:	de6ebdfb 	mcrle	13, 3, fp, cr14, cr11, {7}
     344:	a358ea82 	cmpge	r8, #532480	; 0x82000
     348:	d4dd7d0f 	ldrble	r7, [sp], #3343	; 0xd0f
     34c:	c4d501ad 	ldrbgt	r0, [r5], #429	; 0x1ad
     350:	1795aa08 	ldrne	sl, [r5, r8, lsl #20]
     354:	263dab2d 	ldrtcs	sl, [sp], -sp, lsr #22
     358:	5a8743fa 	bpl	fe1d1348 <memset+0xfe1cc138>
     35c:	a7f2ffa8 	ldrbge	pc, [r2, r8, lsr #31]!	; <UNPREDICTABLE>
     360:	472be0c5 	strmi	lr, [fp, -r5, asr #1]!
     364:	78dabe8e 	ldmvc	sl, {r1, r2, r3, r7, r9, sl, fp, ip, sp, pc}^
     368:	3f1e389a 	svccc	0x001e389a
     36c:	5b930b8a 	blpl	fe4c319c <memset+0xfe4bdf8c>
     370:	3970fbea 	ldmdbcc	r0!, {r1, r3, r5, r6, r7, r8, r9, fp, ip, sp, lr, pc}^
     374:	566c792f 	strbtpl	r7, [ip], -pc, lsr #18
     378:	597cd8d4 	ldmdbpl	ip!, {r2, r4, r6, r7, fp, ip, lr, pc}^
     37c:	2190b363 	orrscs	fp, r0, r3, ror #6
     380:	8f331bd8 	svchi	0x00331bd8
     384:	98febfc0 	ldmls	lr!, {r6, r7, r8, r9, sl, fp, ip, sp, pc}^
     388:	dbad2f92 	blle	feb4c1d8 <memset+0xfeb46fc8>
     38c:	23d8e906 	bicscs	lr, r8, #98304	; 0x18000
     390:	e888e138 	stm	r8, {r3, r4, r5, r8, sp, lr, pc}
     394:	f61a4196 			; <UNDEFINED> instruction: 0xf61a4196
     398:	6c581264 	lfmvs	f1, 2, [r8], {100}	; 0x64
     39c:	9106a3a0 	smlatbls	r6, r0, r3, sl
     3a0:	4c08db4b 			; <UNDEFINED> instruction: 0x4c08db4b
     3a4:	a071ca5a 	rsbsge	ip, r1, sl, asr sl
     3a8:	231bcad6 	tstcs	fp, #876544	; 0xd6000
     3ac:	4330e6a8 	teqmi	r0, #168, 12	; 0xa800000
     3b0:	ec46d89b 	mcrr	8, 9, sp, r6, cr11
     3b4:	3769baa0 	strbcc	fp, [r9, -r0, lsr #21]!
     3b8:	7cb6cef1 	ldcvc	14, cr12, [r6], #964	; 0x3c4
     3bc:	18a4dee8 	stmiane	r4!, {r3, r5, r6, r7, r9, sl, fp, ip, lr, pc}
     3c0:	9835554c 	ldmdals	r5!, {r2, r3, r6, r8, sl, ip, lr}
     3c4:	5bfa60d4 	blpl	ffe9871c <memset+0xffe9350c>
     3c8:	d1750983 	cmnle	r5, r3, lsl #19
     3cc:	a0876db4 			; <UNDEFINED> instruction: 0xa0876db4
     3d0:	ba931ec2 	blt	fe4c7ee0 <memset+0xfe4c2cd0>
     3d4:	6a378235 	bvs	de0cb0 <memset+0xddbaa0>
     3d8:	7ba1a4bb 	blvc	fe8696cc <memset+0xfe8644bc>
     3dc:	38a0dd03 	stmiacc	r0!, {r0, r1, r8, sl, fp, ip, lr, pc}
     3e0:	aeb1c4ac 	cdpge	4, 11, cr12, cr1, cr12, {5}
     3e4:	40dd3fee 	sbcsmi	r3, sp, lr, ror #31
     3e8:	34dcdfaa 	ldrbcc	sp, [ip], #4010	; 0xfaa
     3ec:	b5ceafae 	strblt	sl, [lr, #4014]	; 0xfae
     3f0:	fd4ef58f 	stc2l	5, cr15, [lr, #-572]	; 0xfffffdc4
     3f4:	e0d2d1aa 	sbcs	sp, r2, sl, lsr #3
     3f8:	ebcbb42e 	bl	ff2ed4b8 <memset+0xff2e82a8>
     3fc:	4be12b66 	blmi	ff84b19c <memset+0xff845f8c>
     400:	fc7cb6d8 	ldc2l	6, cr11, [ip], #-864	; 0xfffffca0
     404:	569fc876 			; <UNDEFINED> instruction: 0x569fc876
     408:	4c15a99b 			; <UNDEFINED> instruction: 0x4c15a99b
     40c:	1f791870 	svcne	0x00791870
     410:	d5a84fd6 	strle	r4, [r8, #4054]!	; 0xfd6
     414:	e0753eaf 	rsbs	r3, r5, pc, lsr #29
     418:	6c890bb4 	vstmiavs	r9, {d0-d25}
     41c:	bd6eb53d 	cfstr64lt	mvdx11, [lr, #-244]!	; 0xffffff0c
     420:	f51ad2d7 			; <UNDEFINED> instruction: 0xf51ad2d7
     424:	19bd46db 	ldmibne	sp!, {r0, r1, r3, r4, r6, r7, r9, sl, lr}
     428:	795a9a7d 	ldmdbvc	sl, {r0, r2, r3, r4, r5, r6, r9, fp, ip, pc}^
     42c:	bed7b873 	mrclt	8, 6, fp, cr7, cr3, {3}
     430:	5f637139 	svcpl	0x00637139
     434:	e49bccbc 	ldr	ip, [fp], #3260	; 0xcbc
     438:	43555fa1 	cmpmi	r5, #644	; 0x284
     43c:	fcfd0d5f 	ldc2l	13, cr0, [sp], #380	; 0x17c
     440:	c1813e87 	orrgt	r3, r1, r7, lsl #29
     444:	57b85014 			; <UNDEFINED> instruction: 0x57b85014
     448:	114b7f97 			; <UNDEFINED> instruction: 0x114b7f97
     44c:	e4d0d205 	ldrb	sp, [r0], #517	; 0x205
     450:	b46dc848 	strbtlt	ip, [sp], #-2120	; 0xfffff7b8
     454:	1b89be7f 	blne	fe26fe58 <memset+0xfe26ac48>
     458:	be60d4e7 	cdplt	4, 6, cr13, cr0, cr7, {7}
     45c:	80e936ed 	rschi	r3, r9, sp, ror #13
     460:	9af32bc1 	bls	ffccb36c <memset+0xffcc615c>
     464:	0d8a8076 	stceq	0, cr8, [sl, #472]	; 0x1d8
     468:	e3c8c21f 	bic	ip, r8, #-268435455	; 0xf0000001
     46c:	076f5d51 			; <UNDEFINED> instruction: 0x076f5d51
     470:	cb1b18ba 	blgt	6c6760 <memset+0x6c1550>
     474:	d60a6ebf 			; <UNDEFINED> instruction: 0xd60a6ebf
     478:	0eea1bbd 			; <UNDEFINED> instruction: 0x0eea1bbd
     47c:	23e895e0 	mvncs	r9, #224, 10	; 0x38000000
     480:	1c6e916e 	stfnep	f1, [lr], #-440	; 0xfffffe48
     484:	e5ab30db 	str	r3, [fp, #219]!	; 0xdb
     488:	fc15ab35 	ldc2	11, cr10, [r5], {53}	; 0x35	; <UNPREDICTABLE>
     48c:	91d79b87 	bicsls	r9, r7, r7, lsl #23
     490:	96613177 			; <UNDEFINED> instruction: 0x96613177
     494:	f3428e3c 	vacge.f32	d24, d2, d28
     498:	bc85565f 	stclt	6, cr5, [r5], {95}	; 0x5f
     49c:	326d3db1 	rsbcc	r3, sp, #11328	; 0x2c40
     4a0:	19f531cf 	ldmibne	r5!, {r0, r1, r2, r3, r6, r7, r8, ip, sp}^
     4a4:	baff2d8a 	blt	fffcbad4 <memset+0xfffc68c4>
     4a8:	2753e826 	ldrbcs	lr, [r3, -r6, lsr #16]
     4ac:	1e095d3c 	mcrne	13, 0, r5, cr9, cr12, {1}
     4b0:	0df7e96a 			; <UNDEFINED> instruction: 0x0df7e96a
     4b4:	bb2e2e3e 	bllt	b8bdb4 <memset+0xb86ba4>
     4b8:	a84d65f8 	stmdage	sp, {r3, r4, r5, r6, r7, r8, sl, sp, lr}^
     4bc:	be59ef27 	cdplt	15, 5, cr14, cr9, cr7, {1}
     4c0:	6b20fe24 	blvs	83fd58 <memset+0x83ab48>
     4c4:	1faed707 	svcne	0x00aed707
     4c8:	01ec870c 	mvneq	r8, ip, lsl #14
     4cc:	c3f91ecc 	mvnsgt	r1, #204, 28	; 0xcc0
     4d0:	fc3ef9c6 	ldc2	9, cr15, [lr], #-396	; 0xfffffe74	; <UNPREDICTABLE>
     4d4:	4cb0cfc1 	ldcmi	15, cr12, [r0], #772	; 0x304
     4d8:	d5f465c3 	ldrble	r6, [r4, #1475]!	; 0x5c3
     4dc:	0e64b1be 	mcreq	1, 3, fp, cr4, cr14, {5}
     4e0:	150715b6 	strne	r1, [r7, #-1462]	; 0xfffffa4a
     4e4:	60e68b07 	rscvs	r8, r6, r7, lsl #22
     4e8:	b60e30bb 			; <UNDEFINED> instruction: 0xb60e30bb
     4ec:	2f9f0715 	svccs	0x009f0715
     4f0:	0732d907 	ldreq	sp, [r2, -r7, lsl #18]!
     4f4:	360e648d 	strcc	r6, [lr], -sp, lsl #9
     4f8:	07150715 			; <UNDEFINED> instruction: 0x07150715
     4fc:	b360e68b 	cmnlt	r0, #145752064	; 0x8b00000
     500:	15360e30 	ldrne	r0, [r6, #-3632]!	; 0xfffff1d0
     504:	072f9f07 	streq	r9, [pc, -r7, lsl #30]!
     508:	f179958d 			; <UNDEFINED> instruction: 0xf179958d
     50c:	d1081c69 	tstle	r8, r9, ror #24
     510:	c5e6a0bf 	strbgt	sl, [r6, #191]!	; 0xbf
     514:	7a2f838a 	bvc	be1344 <memset+0xbdc134>
     518:	40aa7c5e 	adcmi	r7, sl, lr, asr ip
     51c:	c6278cf8 			; <UNDEFINED> instruction: 0xc6278cf8
     520:	e3332ba7 	teq	r3, #171008	; 0x29c00
     524:	99aa1264 	stmibls	sl!, {r2, r5, r6, r9, ip}
     528:	4be122b1 	blmi	ff848ff4 <memset+0xff843de4>
     52c:	122b199e 	eorne	r1, fp, #2588672	; 0x278000
     530:	f1a9e73e 			; <UNDEFINED> instruction: 0xf1a9e73e
     534:	648d090a 	strvs	r0, [sp], #2314	; 0x90a
     538:	b1b9aa12 			; <UNDEFINED> instruction: 0xb1b9aa12
     53c:	9e4be122 	sqtlsep	f6, f2
     540:	3e122b1b 	vmovcc.32	r2, d2[0]
     544:	32f1c9e7 	rscscc	ip, r1, #3784704	; 0x39c000
     548:	f5d4c709 			; <UNDEFINED> instruction: 0xf5d4c709
     54c:	b0b1c47f 	adcslt	ip, r1, pc, ror r4
     550:	17f48b83 	ldrbne	r8, [r4, r3, lsl #23]!
     554:	c3cc9128 	bicgt	r9, ip, #40, 2
     558:	c543c553 	strbgt	ip, [r3, #-1363]	; 0xfffffaad
     55c:	b879dcc3 	ldmdalt	r9!, {r0, r1, r6, r7, sl, fp, ip, lr, pc}^
     560:	c8dcc6d0 	ldmgt	ip, {r4, r6, r7, r9, sl, lr, pc}^
     564:	f6ead177 			; <UNDEFINED> instruction: 0xf6ead177
     568:	becc9dfe 	mcrlt	13, 6, r9, cr12, cr14, {7}
     56c:	218600dc 	ldrdcs	r0, [r6, ip]
     570:	76426f26 	strbvc	r6, [r2], -r6, lsr #30
     574:	009bc66d 	addseq	ip, fp, sp, ror #12
     578:	99e0f0ab 	stmibls	r0!, {r0, r1, r3, r5, r7, ip, sp, lr, pc}^
     57c:	7b66d6c0 	blvc	19b6084 <memset+0x19b0e74>
     580:	f7616626 			; <UNDEFINED> instruction: 0xf7616626
     584:	fc2a5e2a 	stc2	14, cr5, [sl], #-168	; 0xffffff58
     588:	45f43225 	ldrbmi	r3, [r4, #549]!	; 0x225
     58c:	fa2a2802 	blx	a8a59c <memset+0xa8538c>
     590:	5c86f245 	sfmpl	f7, 1, [r6], {69}	; 0x45
     594:	cf6048fc 	svcgt	0x006048fc
     598:	acf60deb 	ldclge	13, cr0, [r6], #940	; 0x3ac
     59c:	9f86a6d1 	svcls	0x0086a6d1
     5a0:	1367cd31 	cmnne	r7, #3136	; 0xc40
     5a4:	e9990daa 	ldmib	r9, {r1, r3, r5, r7, r8, sl, fp}
     5a8:	44113753 	ldrmi	r3, [r1], #-1875	; 0xfffff8ad
     5ac:	0d23903d 	stceq	0, cr9, [r3, #-244]!	; 0xffffff0c
     5b0:	80e975db 	ldrdhi	r7, [r9], #91	; 0x5b	; <UNPREDICTABLE>
     5b4:	f39dda07 	vmlsl.u16	<illegal reg q6.5>, d13, d7
     5b8:	8a4c8a2e 	bhi	1322e78 <memset+0x131dc68>
     5bc:	4993454c 	ldmibmi	r3, {r2, r3, r6, r8, sl, lr}
     5c0:	71b12268 			; <UNDEFINED> instruction: 0x71b12268
     5c4:	b6d8c2cb 	ldrblt	ip, [r8], fp, asr #5
     5c8:	3a151e7d 	bcc	547fc4 <memset+0x542db4>
     5cc:	cdca9a10 	vstrgt	s19, [sl, #64]	; 0x40
     5d0:	86e7e637 			; <UNDEFINED> instruction: 0x86e7e637
     5d4:	f5f5ceac 			; <UNDEFINED> instruction: 0xf5f5ceac
     5d8:	5f6bd68d 	svcpl	0x006bd68d
     5dc:	76f3b4b6 			; <UNDEFINED> instruction: 0x76f3b4b6
     5e0:	16ead7a7 	strbtne	sp, [sl], r7, lsr #15
     5e4:	56eaaf48 	strbtpl	sl, [sl], r8, asr #30
     5e8:	bc213d7a 	stclt	13, cr3, [r1], #-488	; 0xfffffe18
     5ec:	89ebb0b6 	stmibhi	fp!, {r1, r2, r4, r5, r7, ip, sp, pc}^
     5f0:	aa0f15c1 	bge	3c5cfc <memset+0x3c0aec>
     5f4:	4c0f50da 	stcmi	0, cr5, [pc], {218}	; 0xda
     5f8:	3f98735f 	svccc	0x0098735f
     5fc:	df06c718 	svcle	0x0006c718
     600:	3fa92362 	svccc	0x00a92362
     604:	a39c8f30 	orrsge	r8, ip, #48, 30	; 0xc0
     608:	be046934 			; <UNDEFINED> instruction: 0xbe046934
     60c:	49aa1c3d 	stmibmi	sl!, {r0, r2, r3, r4, r5, sl, fp, ip}
     610:	d15742a6 	cmple	r7, r6, lsr #5
     614:	d1afe2e8 			; <UNDEFINED> instruction: 0xd1afe2e8
     618:	8f14add1 	svchi	0x0014add1
     61c:	0224e8b8 	eoreq	lr, r4, #184, 16	; 0xb80000
     620:	f89b7c08 			; <UNDEFINED> instruction: 0xf89b7c08
     624:	d0116b81 	andsle	r6, r1, r1, lsl #23
     628:	ecb86264 	lfm	f6, 4, [r8], #400	; 0x190
     62c:	8f76e31e 	svchi	0x0076e31e
     630:	738cbbe0 	orrvc	fp, ip, #224, 22	; 0x38000
     634:	881c3e55 	ldmdahi	ip, {r0, r2, r4, r6, r9, sl, fp, ip, sp}
     638:	4aff1a0e 	bmi	fffc6e78 <memset+0xfffc1c68>
     63c:	f1af0f90 			; <UNDEFINED> instruction: 0xf1af0f90
     640:	d657fb94 			; <UNDEFINED> instruction: 0xd657fb94
     644:	bf5e7831 	svclt	0x005e7831
     648:	9bb4f4eb 	blls	fed3d9fc <memset+0xfed387ec>
     64c:	9171af76 	cmnls	r1, r6, ror pc
     650:	dd5aee69 	ldclle	14, cr14, [sl, #-420]	; 0xfffffe5c
     654:	dbebb9a7 	blle	ffaeecf8 <memset+0xffae9ae8>
     658:	13d71354 	bicsne	r1, r7, #84, 6	; 0x50000001
     65c:	7384f721 	orrvc	pc, r4, #8650752	; 0x840000
     660:	d73374d7 			; <UNDEFINED> instruction: 0xd73374d7
     664:	aea63cd3 	mcrge	12, 5, r3, cr6, cr3, {6}
     668:	37feffe4 	ldrbcc	pc, [lr, r4, ror #31]!	; <UNPREDICTABLE>
     66c:	9235ecd3 	eorsls	lr, r5, #54016	; 0xd300
     670:	aec192b6 	mcrge	2, 6, r9, cr1, cr6, {5}
     674:	6eb19a6d 	vnegvs.f32	s18, s27
     678:	0453683d 	ldrbeq	r6, [r3], #-2109	; 0xfffff7c3
     67c:	317e0456 	cmncc	lr, r6, asr r4
     680:	b0c1c604 	sbclt	ip, r1, r4, lsl #12
     684:	af77007b 	svcge	0x0077007b
     688:	dfc51d3b 	svcle	0x00c51d3b
     68c:	e6fbf87c 	uxtah	pc, fp, ip, ror #16	; <UNPREDICTABLE>
     690:	bbf86f6c 	bllt	ffe1c448 <memset+0xffe17238>
     694:	5f895a4a 	svcpl	0x00895a4a
     698:	7167f023 	msrvc	SPSR_sxc, r3, lsr #32
     69c:	1b426df8 	blne	109be84 <memset+0x1096c74>
     6a0:	a006cc69 	andge	ip, r6, r9, ror #24
     6a4:	8abf8ab4 	bhi	fefe317c <memset+0xfefddf6c>
     6a8:	5fcf07bf 	svcpl	0x00cf07bf
     6ac:	ae03cfae 	cdpge	15, 0, cr12, cr3, cr14, {5}
     6b0:	069162cf 	ldreq	r6, [r1], pc, asr #5
     6b4:	30b70c51 	adcscc	r0, r7, r1, asr ip
     6b8:	89d12ea2 	ldmibhi	r1, {r1, r5, r7, r9, sl, fp, sp}^
     6bc:	b6290fa7 	strtlt	r0, [r9], -r7, lsr #31
     6c0:	95271d73 	strls	r1, [r7, #-3443]!	; 0xfffff28d
     6c4:	e42fea93 	strt	lr, [pc], #-2707	; 6cc <data_balance_config_+0x5b0>
     6c8:	9520ef88 	strls	lr, [r0, #-3976]!	; 0xfffff078
     6cc:	d80ca647 	stmdale	ip, {r0, r1, r2, r6, r9, sl, sp, pc}
     6d0:	49c8378c 	stmibmi	r8, {r2, r3, r7, r8, r9, sl, ip, sp}^
     6d4:	090e3bad 	stmdbeq	lr, {r0, r2, r3, r5, r7, r8, r9, fp, ip, sp}
     6d8:	e98f1f2c 	stmib	pc, {r2, r3, r5, r8, r9, sl, fp, ip}	; <UNPREDICTABLE>
     6dc:	5c470d96 	mcrrpl	13, 9, r0, r7, cr6
     6e0:	b11407c2 	tstlt	r4, r2, asr #15
     6e4:	ddc08307 	stclle	3, cr8, [r0, #28]
     6e8:	779bbf2d 	ldrvc	fp, [fp, sp, lsr #30]
     6ec:	f899afbd 			; <UNDEFINED> instruction: 0xf899afbd
     6f0:	fc4fba7d 	mcrr2	10, 7, fp, pc, cr13	; <UNPREDICTABLE>
     6f4:	a7d9642e 	ldrbge	r6, [r9, lr, lsr #8]
     6f8:	a7dd7292 	bfige	r7, r2, #5, #25
     6fc:	2bd147f4 	blcs	ff4526d4 <memset+0xff44d4c4>
     700:	9698513f 			; <UNDEFINED> instruction: 0x9698513f
     704:	418dd6ec 	orrmi	sp, sp, ip, ror #13
     708:	bc5c3635 	mrrclt	6, 3, r3, ip, cr5
     70c:	db92a8d9 	blle	fe4aaa78 <memset+0xfe4a5868>
     710:	7dd19f29 	ldclvc	15, cr9, [r1, #164]	; 0xa4
     714:	13fc4db1 	mvnsne	r4, #11328	; 0x2c40
     718:	6e2b6e28 	cdpvs	14, 2, cr6, cr11, cr8, {1}
     71c:	a5b7241f 	ldrge	r2, [r7, #1055]!	; 0x41f
     720:	353e92fe 	ldrcc	r9, [lr, #-766]!	; 0xfffffd02
     724:	17d029ed 	ldrbne	r2, [r0, sp, ror #19]
     728:	cdf82c98 	ldclgt	12, cr2, [r8, #608]!	; 0x260
     72c:	3820bc91 	stmdacc	r0!, {r0, r4, r7, sl, fp, ip, sp, pc}
     730:	d225151f 	eorle	r1, r5, #130023424	; 0x7c00000
     734:	3cc189b3 			; <UNDEFINED> instruction: 0x3cc189b3
     738:	eb214fd4 	bl	854690 <memset+0x84f480>
     73c:	51e05189 	mvnpl	r5, r9, lsl #3
     740:	b02fb97f 	eorlt	fp, pc, pc, ror r9	; <UNPREDICTABLE>
     744:	172252bf 			; <UNDEFINED> instruction: 0x172252bf
     748:	ff116e0c 			; <UNDEFINED> instruction: 0xff116e0c
     74c:	f8331eee 			; <UNDEFINED> instruction: 0xf8331eee
     750:	34c09c39 	strbcc	r9, [r0], #3129	; 0xc39
     754:	116a7b0d 	cmnne	sl, sp, lsl #22
     758:	43cc7a97 	bicmi	r7, ip, #618496	; 0x97000
     75c:	43b4fde2 			; <UNDEFINED> instruction: 0x43b4fde2
     760:	3da8e392 	stccc	3, cr14, [r8, #584]!	; 0x248
     764:	2ebf9258 	mrccs	2, 5, r9, cr15, cr8, {2}
     768:	96427ebd 			; <UNDEFINED> instruction: 0x96427ebd
     76c:	09600f57 	stmdbeq	r0!, {r0, r1, r2, r4, r6, r8, r9, sl, fp}^
     770:	04797c9f 	ldrbteq	r7, [r9], #-3231	; 0xfffff361
     774:	bda957ca 	stclt	7, cr5, [r9, #808]!	; 0x328
     778:	0269f940 	rsbeq	pc, r9, #64, 18	; 0x100000
     77c:	ca154fca 	bgt	5546ac <memset+0x54f49c>
     780:	ca15ca15 	bgt	572fdc <memset+0x56ddcc>
     784:	a7e50c0f 	strbge	r0, [r5, pc, lsl #24]!
     788:	1ecfe50a 	cdpne	5, 12, cr14, cr15, cr10, {0}
     78c:	1e9ba7e5 	cdpne	7, 9, cr10, cr11, cr5, {7}
     790:	990f0a15 	stmdbls	pc, {r0, r2, r4, r9, fp}	; <UNPREDICTABLE>
     794:	f8516966 			; <UNDEFINED> instruction: 0xf8516966
     798:	ae289a54 			; <UNDEFINED> instruction: 0xae289a54
     79c:	cf1421e2 	svcgt	0x001421e2
     7a0:	c4cddf0b 	strbgt	sp, [sp], #3851	; 0xf0b
     7a4:	31385295 	teqcc	r8, r5	; <illegal shifter operand>
     7a8:	d703cba4 	strle	ip, [r3, -r4, lsr #23]
     7ac:	67d709ce 	ldrbvs	r0, [r7, lr, asr #19]
     7b0:	f1322cc2 			; <UNDEFINED> instruction: 0xf1322cc2
     7b4:	31fb394a 	mvnscc	r3, sl, asr #18
     7b8:	d7fa9d5a 	ubfxle	r9, sl, #26, #27
     7bc:	b981cb34 	stmiblt	r1, {r2, r4, r5, r8, r9, fp, lr, pc}
     7c0:	4c1c4407 	cfldrsmi	mvf4, [ip], {7}
     7c4:	cbc4c444 	blgt	ff1318dc <memset+0xff12c6cc>
     7c8:	40911114 	addsmi	r1, r1, r4, lsl r1
     7cc:	6d7a15a8 	cfldr64vs	mvdx1, [sl, #-672]!	; 0xfffffd60
     7d0:	ec53945d 	cfldrd	mvd9, [r3], {93}	; 0x5d
     7d4:	23daec52 	bicscs	lr, sl, #20992	; 0x5200
     7d8:	2c9d7176 	ldfcss	f7, [sp], {118}	; 0x76
     7dc:	17db5d1e 	bfine	r5, lr, #26, #2
     7e0:	9eb914d2 	mrcls	4, 5, r1, cr9, cr2, {6}
     7e4:	0bd15c80 	bleq	ff4579ec <memset+0xff4527dc>
     7e8:	eb69bc59 	bl	1a6f954 <memset+0x1a6a744>
     7ec:	97029672 	smlsdxls	r2, r2, r6, r9
     7f0:	6d3ed702 	ldcvs	7, cr13, [lr, #-8]!
     7f4:	492c5a17 	stmdbmi	ip!, {r0, r1, r2, r4, r9, fp, ip, lr}
     7f8:	edae0915 			; <UNDEFINED> instruction: 0xedae0915
     7fc:	5c0a482b 	stcpl	8, cr4, [sl], {43}	; 0x2b
     800:	c8ae004f 	stmiagt	lr!, {r0, r1, r2, r3, r6}
     804:	24d11c55 	ldrbcs	r1, [r1], #3157	; 0xc55
     808:	58da1b3c 	ldmpl	sl, {r2, r3, r4, r5, r8, r9, fp, ip}^
     80c:	fc718737 	ldc2l	7, cr8, [r1], #-220	; 0xffffff24
     810:	d0b680ba 	ldrhtle	r8, [r6], sl
     814:	a630a80f 	ldrtge	sl, [r0], -pc, lsl #16
     818:	1847b630 	stmdane	r7, {r4, r5, r9, sl, ip, sp, pc}^
     81c:	9d29aae3 	vstmdbls	r9!, {s20-s246}
     820:	ec724573 	cfldr64	mvdx4, [r2], #-460	; 0xfffffe34
     824:	3c9c2ff6 	ldccc	15, cr2, [ip], {246}	; 0xf6
     828:	cef5176a 	cdpgt	7, 15, cr1, cr5, cr10, {3}
     82c:	ee59c2b9 	mrc	2, 2, ip, cr9, cr9, {5}
     830:	56648b38 			; <UNDEFINED> instruction: 0x56648b38
     834:	4186d514 	orrmi	sp, r6, r4, lsl r5
     838:	1cf274fc 	cfldrdne	mvd7, [r2], #1008	; 0x3f0
     83c:	14d514da 	ldrbne	r1, [r5], #1242	; 0x4da
     840:	8771f6d5 			; <UNDEFINED> instruction: 0x8771f6d5
     844:	fee6aa10 	mcr2	10, 7, sl, cr6, cr0, {0}	; <UNPREDICTABLE>
     848:	4efced50 	mrcmi	13, 7, lr, cr12, cr0, {2}
     84c:	47772ecd 	ldrbmi	r2, [r7, -sp, asr #29]!
     850:	2d6655b5 	cfstr64cs	mvdx5, [r6, #-724]!	; 0xfffffd2c
     854:	ee396996 			; <UNDEFINED> instruction: 0xee396996
     858:	933aea34 	teqls	sl, #52, 20	; 0x34000
     85c:	225af584 	subscs	pc, sl, #132, 10	; 0x21000000
     860:	d31f356c 	tstle	pc, #108, 10	; 0x1b000000
     864:	b5a80852 	strlt	r0, [r8, #2130]!	; 0x852
     868:	8a9737ba 	bhi	fe5ce758 <memset+0xfe5c9548>
     86c:	45698a69 	strbmi	r8, [r9, #-2665]!	; 0xfffff597
     870:	90f50d33 	rscsls	r0, r5, r3, lsr sp
     874:	cf7de91c 	svcgt	0x007de91c
     878:	7194ad06 	orrsvc	sl, r4, r6, lsl #26
     87c:	72e4af90 	rscvc	sl, r4, #144, 30	; 0x240
     880:	dc32bc2c 	ldcle	12, cr11, [r2], #-176	; 0xffffff50
     884:	dcc643ff 	stclle	3, cr4, [r6], {255}	; 0xff
     888:	2bcae39a 	blcs	ff2b96f8 <memset+0xff2b44e8>
     88c:	a551d2e3 	ldrbge	sp, [r1, #-739]	; 0xfffffd1d
     890:	9ea0b8c5 	cdpls	8, 10, cr11, cr0, cr5, {6}
     894:	d3edaa58 	mvnle	sl, #88, 20	; 0x58000
     898:	352b52f9 	strcc	r5, [fp, #-761]!	; 0xfffffd07
     89c:	b9b60be6 	ldmiblt	r6!, {r1, r2, r5, r6, r7, r8, r9, fp}
     8a0:	d372a92f 	cmnle	r2, #770048	; 0xbc000
     8a4:	a983134e 	stmibge	r3, {r1, r2, r3, r6, r8, r9, ip}
     8a8:	0dee1258 	sfmeq	f1, 2, [lr, #352]!	; 0x160
     8ac:	f86c530a 			; <UNDEFINED> instruction: 0xf86c530a
     8b0:	332bef16 			; <UNDEFINED> instruction: 0x332bef16
     8b4:	2768630f 	strbcs	r6, [r8, -pc, lsl #6]!
     8b8:	983cc859 	ldmdals	ip!, {r0, r3, r4, r6, fp, lr, pc}
     8bc:	e4a6eacf 	strt	lr, [r6], #2767	; 0xacf
     8c0:	7b0c1c65 	blvc	307a5c <memset+0x30284c>
     8c4:	027dd52e 	rsbseq	sp, sp, #192937984	; 0xb800000
     8c8:	f6ab8d2a 			; <UNDEFINED> instruction: 0xf6ab8d2a
     8cc:	1ebb6796 	mrcne	7, 5, r6, cr11, cr6, {4}
     8d0:	b5b23dd1 	ldrlt	r3, [r2, #3537]!	; 0xdd1
     8d4:	8299d778 	addshi	sp, r9, #120, 14	; 0x1e00000
     8d8:	f0c121e1 			; <UNDEFINED> instruction: 0xf0c121e1
     8dc:	4503cb30 	strmi	ip, [r3, #-2864]	; 0xfffff4d0
     8e0:	3c4ea6aa 	mcrrcc	6, 10, sl, lr, cr10
     8e4:	589b6a26 	ldmpl	fp, {r1, r2, r5, r9, fp, sp, lr}
     8e8:	12b098f4 	adcsne	r9, r0, #244, 16	; 0xf40000
     8ec:	5d0a212d 	stfpls	f2, [sl, #-180]	; 0xffffff4c
     8f0:	88e0703f 	stmiahi	r0!, {r0, r1, r2, r3, r4, r5, ip, sp, lr}^
     8f4:	fd2e2339 	stc2	3, cr2, [lr, #-228]!	; 0xffffff1c
     8f8:	7297301e 	addsvc	r3, r7, #30
     8fc:	90f6261d 	rscsls	r2, r6, sp, lsl r6
     900:	3f7651e3 	svccc	0x007651e3
     904:	c7c85be6 	strbgt	r5, [r8, r6, ror #23]
     908:	d6f09a94 	usatle	r9, #16, r4, lsl #21
     90c:	cb9c3e87 	blgt	fe710330 <memset+0xfe70b120>
     910:	3e6fd6a5 	cdpcc	6, 6, cr13, cr15, cr5, {5}
     914:	63cf6c71 	bicvs	r6, pc, #28928	; 0x7100
     918:	8472c318 	ldrbthi	ip, [r2], #-792	; 0xfffffce8
     91c:	e375cadb 	cmn	r5, #897024	; 0xdb000
     920:	1901b31e 	stmdbne	r1, {r1, r2, r3, r4, r8, r9, ip, sp, pc}
     924:	7a7845c4 	bvc	1e1203c <memset+0x1e0ce2c>
     928:	bd3facfc 	ldclt	12, cr10, [pc, #-1008]!	; 540 <data_balance_config_+0x424>
     92c:	ed9d19ca 	vldr.16	s2, [sp, #404]	; 0x194
     930:	5779ad5b 			; <UNDEFINED> instruction: 0x5779ad5b
     934:	325348ef 	subscc	r4, r3, #15663104	; 0xef0000
     938:	1094f57b 	addsne	pc, r4, fp, ror r5	; <UNPREDICTABLE>
     93c:	be837109 	rmflts	f7, f3, #1.0
     940:	efd333e6 	svc	0x00d333e6
     944:	dc6f83eb 	stclle	3, cr8, [pc], #-940	; 5a0 <data_balance_config_+0x484>
     948:	f8e9a5c7 			; <UNDEFINED> instruction: 0xf8e9a5c7
     94c:	59331306 	ldmdbpl	r3!, {r1, r2, r8, r9, ip}
     950:	653608ab 	ldrvs	r0, [r6, #-2219]!	; 0xfffff755
     954:	000d150b 	andeq	r1, sp, fp, lsl #10
     958:	0868c359 	stmdaeq	r8!, {r0, r3, r4, r6, r8, r9, lr, pc}^
     95c:	1913d123 	ldmdbne	r3, {r0, r1, r5, r8, ip, lr, pc}
     960:	3b858cbb 	blcc	fe163c54 <memset+0xfe15ea44>
     964:	dce8543e 	cfstrdle	mvd5, [r8], #248	; 0xf8
     968:	ddaf6606 	stcle	6, cr6, [pc, #24]!	; 988 <data_balance_config_+0x86c>
     96c:	37ac7de9 	strcc	r7, [ip, r9, ror #27]!
     970:	7be7733e 	blvc	ff9dd670 <memset+0xff9d8460>
     974:	40e87e58 	rscmi	r7, r8, r8, asr lr
     978:	2ee1e137 	mcrcs	1, 7, lr, cr1, cr7, {1}
     97c:	e2ef9db7 	rsc	r9, pc, #11712	; 0x2dc0
     980:	562c1748 	strtpl	r1, [ip], -r8, asr #14
     984:	f62d14cd 			; <UNDEFINED> instruction: 0xf62d14cd
     988:	7eeffb14 	vdupvc.8	<illegal reg q7.5>, pc
     98c:	12a730df 	adcne	r3, r7, #223	; 0xdf
     990:	4e86b8e1 	cdpmi	8, 8, cr11, cr6, cr1, {7}
     994:	b634a1cf 	ldrtlt	sl, [r4], -pc, asr #3
     998:	362dc008 	strtcc	ip, [sp], -r8
     99c:	742a742a 	strtvc	r7, [sl], #-1066	; 0xfffffbd6
     9a0:	ae4e8d16 	mcrge	13, 2, r8, cr14, cr6, {0}
     9a4:	27cc0488 	strbcs	r0, [ip, r8, lsl #9]
     9a8:	a7bc6731 			; <UNDEFINED> instruction: 0xa7bc6731
     9ac:	a7783ff0 			; <UNDEFINED> instruction: 0xa7783ff0
     9b0:	218983cc 	orrcs	r8, r9, ip, asr #7
     9b4:	9d46686e 	stclls	8, cr6, [r6, #-440]	; 0xfffffe48
     9b8:	6b540106 	blvs	1500dd8 <memset+0x14fbbc8>
     9bc:	a116a110 	tstge	r6, r0, lsl r1
     9c0:	81e8030f 	mvnhi	r0, pc, lsl #6
     9c4:	358c4b4d 	strcc	r4, [ip, #2893]	; 0xb4d
     9c8:	58206819 	stmdapl	r0!, {r0, r3, r4, fp, sp, lr}
     9cc:	cfe7ba45 	svcgt	0x00e7ba45
     9d0:	ba064b79 	blt	1937bc <memset+0x18e5ac>
     9d4:	034bb385 	movteq	fp, #45957	; 0xb385
     9d8:	ed750986 			; <UNDEFINED> instruction: 0xed750986
     9dc:	36d1cbc0 	ldrbcc	ip, [r1], r0, asr #23
     9e0:	edf0455a 	cfldr64	mvdx4, [r0, #360]!	; 0x168
     9e4:	3cd5ab4d 	fldmiaxcc	r5, {d26-d63}	;@ Deprecated
     9e8:	05d07ddc 	ldrbeq	r7, [r0, #3548]	; 0xddc
     9ec:	4b3c5025 	blmi	f14a88 <memset+0xf0f878>
     9f0:	b9d7e145 	ldmiblt	r7, {r0, r2, r6, r8, sp, lr, pc}^
     9f4:	fdecb840 	vcmla.f16	<illegal reg q13.5>, q6, q0, #270
     9f8:	81af0c0d 			; <UNDEFINED> instruction: 0x81af0c0d
     9fc:	dbc31576 	blle	ff0c5fdc <memset+0xff0c0dcc>
     a00:	0a2b44b7 	beq	ad1ce4 <memset+0xaccad4>
     a04:	51ef0a2b 	mvnpl	r0, fp, lsr #20
     a08:	863f88f4 			; <UNDEFINED> instruction: 0x863f88f4
     a0c:	36d8e939 			; <UNDEFINED> instruction: 0x36d8e939
     a10:	cd4dc88d 	stclgt	8, cr12, [sp, #-564]	; 0xfffffdcc
     a14:	f51eb873 			; <UNDEFINED> instruction: 0xf51eb873
     a18:	1d5c9fc2 	ldclne	15, cr9, [ip, #-776]	; 0xfffffcf8
     a1c:	1b515e8c 	blne	1458454 <memset+0x1453244>
     a20:	f9bdb2d7 			; <UNDEFINED> instruction: 0xf9bdb2d7
     a24:	724e7654 	subvc	r7, lr, #84, 12	; 0x5400000
     a28:	09e1ec0b 	stmibeq	r1!, {r0, r1, r3, sl, fp, sp, lr, pc}^
     a2c:	07667af2 			; <UNDEFINED> instruction: 0x07667af2
     a30:	3d0f4e78 	stccc	14, cr4, [pc, #-480]	; 858 <data_balance_config_+0x73c>
     a34:	629db884 	addsvs	fp, sp, #132, 16	; 0x840000
     a38:	1b563847 	blne	158eb5c <memset+0x158994c>
     a3c:	d0d9f39a 	smullsle	pc, r9, sl, r3	; <UNPREDICTABLE>
     a40:	6ed9fbfc 	vmovvs.u8	pc, d25[3]
     a44:	c16f3477 	smcgt	62279	; 0xf347
     a48:	c7801470 			; <UNDEFINED> instruction: 0xc7801470
     a4c:	a081caf7 	strdge	ip, [r1], r7
     a50:	0e907bf8 	vmoveq.u16	r7, d16[1]
     a54:	8a9c3184 	bhi	fe70d06c <memset+0xfe707e5c>
     a58:	6e4dcbdc 	vmovvs.8	d29[2], ip
     a5c:	5c2173bb 	stcpl	3, cr7, [r1], #-748	; 0xfffffd14
     a60:	840e517c 	strhi	r5, [lr], #-380	; 0xfffffe84
     a64:	d840e117 	stmdale	r0, {r0, r1, r2, r4, r8, sp, lr, pc}^
     a68:	360ae344 	strcc	lr, [sl], -r4, asr #6
     a6c:	6140f395 			; <UNDEFINED> instruction: 0x6140f395
     a70:	0f3b59f3 	svceq	0x003b59f3
     a74:	37baf856 	sbfxcc	pc, r6, #16, #27
     a78:	afc003ee 	svcge	0x00c003ee
     a7c:	14bc1e72 	ldrtne	r1, [ip], #3698	; 0xe72
     a80:	6626c1e7 	strtvs	ip, [r6], -r7, ror #3
     a84:	1b1c1197 	blne	7050e8 <memset+0x6ffed8>
     a88:	ab8a8dbc 	blge	fe2a4180 <memset+0xfe29ef70>
     a8c:	062837b2 			; <UNDEFINED> instruction: 0x062837b2
     a90:	f6c44bef 			; <UNDEFINED> instruction: 0xf6c44bef
     a94:	c4faa18a 	ldrbtgt	sl, [sl], #394	; 0x18a
     a98:	0b3803ce 	bleq	e019d8 <memset+0xdfc7c8>
     a9c:	47d73c8c 	ldrbmi	r3, [r7, ip, lsl #25]
     aa0:	cc2bc1df 	stfgtd	f4, [fp], #-892	; 0xfffffc84
     aa4:	146110cc 	strbtne	r1, [r1], #-204	; 0xffffff34
     aa8:	3627ee23 	strtcc	lr, [r7], -r3, lsr #28
     aac:	df64db90 	svcle	0x0064db90
     ab0:	3ec339a8 	vdivcc.f16	s7, s7, s17	; <UNPREDICTABLE>
     ab4:	71796d80 	cmnvc	r9, r0, lsl #27
     ab8:	7f073fa0 	svcvc	0x00073fa0
     abc:	21bfd5df 			; <UNDEFINED> instruction: 0x21bfd5df
     ac0:	1eb2c1f6 	mrcne	1, 5, ip, cr2, cr6, {7}
     ac4:	6c79dcd9 	ldclvs	12, cr13, [r9], #-868	; 0xfffffc9c
     ac8:	c631ad4f 	ldrtgt	sl, [r1], -pc, asr #26
     acc:	0616d91f 			; <UNDEFINED> instruction: 0x0616d91f
     ad0:	6680611d 	pkhbtvs	r6, r0, sp, lsl #2
     ad4:	ea7df75f 	b	1f7e858 <memset+0x1f79648>
     ad8:	67898ece 	strvs	r8, [r9, lr, asr #29]
     adc:	09b15a83 	ldmibeq	r1!, {r0, r1, r7, r9, fp, ip, lr}
     ae0:	4d3c17dc 	ldcmi	7, cr1, [ip, #-880]!	; 0xfffffc90
     ae4:	cf28fa60 	svcgt	0x0028fa60
     ae8:	99d7cc50 	ldmibls	r7, {r4, r6, sl, fp, lr, pc}^
     aec:	1f570c49 	svcne	0x00570c49
     af0:	adbeaf61 	ldcge	15, cr10, [lr, #388]!	; 0x184
     af4:	c6f106bb 			; <UNDEFINED> instruction: 0xc6f106bb
     af8:	911703ba 			; <UNDEFINED> instruction: 0x911703ba
     afc:	c895ec37 	ldmgt	r5, {r0, r1, r2, r4, r5, sl, fp, sp, lr, pc}
     b00:	0711be0e 	ldreq	fp, [r1, -lr, lsl #28]
     b04:	7df8d1eb 	ldfvcp	f5, [r8, #940]!	; 0x3ac
     b08:	54f36baf 	ldrbtpl	r6, [r3], #2991	; 0xbaf
     b0c:	0f907b2b 	svceq	0x00907b2b
     b10:	b00bf222 	andlt	pc, fp, r2, lsr #4
     b14:	ca982ef8 	bgt	fe60c6fc <memset+0xfe6074ec>
     b18:	0b3ea1a3 	bleq	fa91ac <memset+0xfa3f9c>
     b1c:	40d1e987 	sbcsmi	lr, r1, r7, lsl #19
     b20:	1deeefb7 	stclne	15, cr14, [lr, #732]!	; 0x2dc
     b24:	d0e51d1a 	rscle	r1, r5, sl, lsl sp
     b28:	0d0e1978 	vstreq.16	s2, [lr, #-240]	; 0xffffff10	; <UNPREDICTABLE>
     b2c:	61a1c133 			; <UNDEFINED> instruction: 0x61a1c133
     b30:	a286872a 	addge	r8, r6, #11010048	; 0xa80000
     b34:	6874b3e6 	ldmdavs	r4!, {r1, r2, r5, r6, r7, r8, r9, ip, sp, pc}^
     b38:	15fb7888 	ldrbne	r7, [fp, #2184]!	; 0x888
     b3c:	f04dceb4 			; <UNDEFINED> instruction: 0xf04dceb4
     b40:	1e0cfe2d 	cdpne	14, 0, cr15, cr12, cr13, {1}
     b44:	5c0c3a63 			; <UNDEFINED> instruction: 0x5c0c3a63
     b48:	ff18729e 			; <UNDEFINED> instruction: 0xff18729e
     b4c:	07eb2eb4 			; <UNDEFINED> instruction: 0x07eb2eb4
     b50:	c3b9b73e 			; <UNDEFINED> instruction: 0xc3b9b73e
     b54:	68fa7973 	ldmvs	sl!, {r0, r1, r4, r5, r6, r8, fp, ip, sp, lr}^
     b58:	8e8f5e17 	mcrhi	14, 4, r5, cr15, cr7, {0}
     b5c:	1cbc7af2 	vldmiane	ip!, {s14-s255}
     b60:	e09987af 	adds	r8, r9, pc, lsr #15
     b64:	e3ef30f5 	mvn	r3, #245	; 0xf5
     b68:	954dc04b 	strbls	ip, [sp, #-75]	; 0xffffffb5
     b6c:	7a7143d3 	bvc	1c51ac0 <memset+0x1c4c8b0>
     b70:	4e518a7f 			; <UNDEFINED> instruction: 0x4e518a7f
     b74:	2479f373 	ldrbtcs	pc, [r9], #-883	; 0xfffffc8d	; <UNPREDICTABLE>
     b78:	1d904c05 	ldcne	12, cr4, [r0, #20]
     b7c:	177958b0 			; <UNDEFINED> instruction: 0x177958b0
     b80:	eff2a60e 	svc	0x00f2a60e
     b84:	660b7d63 	strvs	r7, [fp], -r3, ror #26
     b88:	a5c16fa4 	strbge	r6, [r1, #4004]	; 0xfa4
     b8c:	d9264e58 	stmdble	r6!, {r3, r4, r6, r9, sl, fp, lr}
     b90:	1972ee52 	ldmdbne	r2!, {r1, r4, r6, r9, sl, fp, sp, lr, pc}^
     b94:	a1daa74c 	bicsge	sl, sl, ip, asr #14
     b98:	ca24d4f7 	bgt	935f7c <memset+0x930d6c>
     b9c:	3e445672 	mcrcc	6, 2, r5, cr4, cr2, {3}
     ba0:	2859cb08 	ldmdacs	r9, {r3, r8, r9, fp, lr, pc}^
     ba4:	033b6877 	teqeq	fp, #7798784	; 0x770000
     ba8:	1093c555 	addsne	ip, r3, r5, asr r5
     bac:	5c73e87d 	ldclpl	8, cr14, [r3], #-500	; 0xfffffe0c
     bb0:	db64cc2f 	blle	1933c74 <memset+0x192ea64>
     bb4:	8560e002 	strbhi	lr, [r0, #-2]!
     bb8:	9d8eb1d9 	stflsd	f3, [lr, #868]	; 0x364
     bbc:	1386c8c1 	orrne	ip, r6, #12648448	; 0xc10000
     bc0:	3e49e8e9 	cdpcc	8, 4, cr14, cr9, cr9, {7}
     bc4:	c0042002 	andgt	r2, r4, r2
     bc8:	e9a2b079 	stmib	r2!, {r0, r3, r4, r5, r6, ip, sp, pc}
     bcc:	c33a00f7 	teqgt	sl, #247	; 0xf7
     bd0:	f3976c69 	vqdmulh.s16	q3, <illegal reg q3.5>, d1[3]
     bd4:	76916299 			; <UNDEFINED> instruction: 0x76916299
     bd8:	3f8c614c 	svccc	0x008c614c
     bdc:	7cdd5b2f 	fldmiaxvc	sp, {d21-d43}	;@ Deprecated
     be0:	86c0ed34 			; <UNDEFINED> instruction: 0x86c0ed34
     be4:	777ab6ee 	ldrbvc	fp, [sl, -lr, ror #13]!
     be8:	47652bdd 			; <UNDEFINED> instruction: 0x47652bdd
     bec:	574768e7 	strbpl	r6, [r7, -r7, ror #17]
     bf0:	8e8ecaf7 			; <UNDEFINED> instruction: 0x8e8ecaf7
     bf4:	e682f5a6 	str	pc, [r2], r6, lsr #11
     bf8:	d7daa9b8 			; <UNDEFINED> instruction: 0xd7daa9b8
     bfc:	cef27637 	mrcgt	6, 7, r7, cr2, cr7, {1}
     c00:	ed90dd49 	ldc	13, cr13, [r0, #292]	; 0x124
     c04:	144bb424 	strbne	fp, [fp], #-1060	; 0xfffffbdc
     c08:	0bc515c5 	bleq	ff146324 <memset+0xff141114>
     c0c:	621b49df 	andsvs	r4, fp, #3653632	; 0x37c000
     c10:	cfea6013 	svcgt	0x00ea6013
     c14:	8ee803f3 	mcrhi	3, 7, r0, cr8, cr3, {7}
     c18:	7ba43263 	blvc	fe90d5ac <memset+0xfe90839c>
     c1c:	df87bedf 	svcle	0x0087bedf
     c20:	6430eff0 	ldrtvs	lr, [r0], #-4080	; 0xfffff010
     c24:	e9e5c0a3 	stmib	r5!, {r0, r1, r5, r7, lr, pc}^
     c28:	6c0481dc 	stfvsd	f0, [r4], {220}	; 0xdc
     c2c:	d6f84c12 	usatle	r4, #24, r2, lsl #24
     c30:	7fa912f4 	svcvc	0x00a912f4
     c34:	9aa30bae 	bls	fe8c3af4 <memset+0xfe8be8e4>
     c38:	6e8902fb 	mcrvs	2, 4, r0, cr9, cr11, {7}
     c3c:	fcf027fc 	ldc2l	7, cr2, [r0], #1008	; 0x3f0
     c40:	78e85c09 	stmiavc	r8!, {r0, r3, sl, fp, ip, lr}^
     c44:	4300ffee 	movwmi	pc, #4078	; 0xfee	; <UNPREDICTABLE>
     c48:	06bbaa7a 			; <UNDEFINED> instruction: 0x06bbaa7a
     c4c:	9db6e018 	ldcls	0, cr14, [r6, #96]!	; 0x60
     c50:	e8e1973f 	stmia	r1!, {r0, r1, r2, r3, r4, r5, r8, r9, sl, ip, pc}^
     c54:	d57eaf6d 	ldrble	sl, [lr, #-3949]!	; 0xfffff093
     c58:	3aab583b 	bcc	fead6d4c <memset+0xfead1b3c>
     c5c:	62bc5565 	adcsvs	r5, ip, #423624704	; 0x19400000
     c60:	3065e28a 	rsbcc	lr, r5, sl, lsl #5
     c64:	8829f3aa 	stmdahi	r9!, {r1, r3, r5, r7, r8, r9, ip, sp, lr, pc}
     c68:	4ddb8097 	ldclmi	0, cr8, [fp, #604]	; 0x25c
     c6c:	7b262714 	blvc	98a8c4 <memset+0x9856b4>
     c70:	cab1e0d9 	bgt	fec78fdc <memset+0xfec73dcc>
     c74:	bca0a2f4 	sfmlt	f2, 1, [r0], #976	; 0x3d0
     c78:	f229ca15 	vpmin.s32	d12, d9, d5
     c7c:	1936ec9b 	ldmdbne	r6!, {r0, r1, r3, r4, r7, sl, fp, sp, lr, pc}
     c80:	922c198c 	eorls	r1, ip, #140, 18	; 0x230000
     c84:	0b5e08c1 	bleq	1782f90 <memset+0x177dd80>
     c88:	031c3c83 	tsteq	ip, #33536	; 0x8300
     c8c:	8d78cb0b 	fldmdbxhi	r8!, {d28-d32}	;@ Deprecated
     c90:	f143bbee 			; <UNDEFINED> instruction: 0xf143bbee
     c94:	397d6421 	ldmdbcc	sp!, {r0, r5, sl, sp, lr}^
     c98:	de613cad 	cdple	12, 6, cr3, cr1, cr13, {5}
     c9c:	5f896d97 	svcpl	0x00896d97
     ca0:	ef3e9ece 	svc	0x003e9ece
     ca4:	2df636cb 	ldclcs	6, cr3, [r6, #812]!	; 0x32c
     ca8:	bbaf78e0 	bllt	febdf030 <memset+0xfebd9e20>
     cac:	734b822c 	movtvc	r8, #45612	; 0xb22c
     cb0:	ed917dec 	ldc	13, cr7, [r1, #944]	; 0x3b0
     cb4:	48554eca 	ldmdami	r5, {r1, r3, r6, r7, r9, sl, fp, lr}^
     cb8:	f53b1bdc 			; <UNDEFINED> instruction: 0xf53b1bdc
     cbc:	8cc4ca2a 	vstmiahi	r4, {s25-s66}
     cc0:	ea0d5a36 	b	3575a0 <memset+0x352390>
     cc4:	1c878b50 	vstmiane	r7, {d8-<overflow reg d47>}
     cc8:	06f096db 	usateq	r9, #16, fp, asr #13
     ccc:	06ffe31c 	usateq	lr, #31, ip, lsl #6
     cd0:	ccad886c 	stcgt	8, cr8, [sp], #432	; 0x1b0
     cd4:	4b918102 	blmi	fe4610e4 <memset+0xfe45bed4>
     cd8:	ea1c47a9 	b	712b84 <memset+0x70d974>
     cdc:	c1034412 	tstgt	r3, r2, lsl r4
     ce0:	ef3c7291 	svc	0x003c7291
     ce4:	74a3026f 	strtvc	r0, [r3], #623	; 0x26f
     ce8:	c0919cd7 			; <UNDEFINED> instruction: 0xc0919cd7
     cec:	7070e1e1 	rsbsvc	lr, r0, r1, ror #3
     cf0:	e0dc0fef 	sbcs	r0, ip, pc, ror #31
     cf4:	d045dac5 	suble	sp, r5, r5, asr #21
     cf8:	907c637d 	rsbsls	r6, ip, sp, ror r3
     cfc:	2250214b 	subscs	r2, r0, #-1073741806	; 0xc0000012
     d00:	f78b758d 			; <UNDEFINED> instruction: 0xf78b758d
     d04:	dd23a2c8 	sfmle	f2, 1, [r3, #-800]!	; 0xfffffce0
     d08:	66c0f767 	strbvs	pc, [r0], r7, ror #14	; <UNPREDICTABLE>
     d0c:	9d497e34 	stclls	14, cr7, [r9, #-208]	; 0xffffff30
     d10:	c1e3c35f 	mvngt	ip, pc, asr r3
     d14:	7af4866d 	bvc	ffd226d0 <memset+0xffd1d4c0>
     d18:	583635c0 	ldmdapl	r6!, {r6, r7, r8, sl, ip, sp}
     d1c:	bf9b3f9d 	svclt	0x009b3f9d
     d20:	faedbbd4 	blx	ffb6fc78 <memset+0xffb6aa68>
     d24:	1a618cc7 	bne	1864048 <memset+0x185ee38>
     d28:	ef59b707 	svc	0x0059b707
     d2c:	6ed45aa4 	vfnmsvs.f32	s11, s9, s9
     d30:	e4ec1cbd 	strbt	r1, [ip], #3261	; 0xcbd
     d34:	2dd65732 	ldclcs	7, cr5, [r6, #200]	; 0xc8
     d38:	8b04865f 	blhi	1226bc <memset+0x11d4ac>
     d3c:	9bfc1379 	blls	fff05b28 <memset+0xfff00918>
     d40:	de0d051f 	mcrle	5, 0, r0, cr13, cr15, {0}
     d44:	430fea69 	movwmi	lr, #64105	; 0xfa69
     d48:	03eaf8a8 	mvneq	pc, #168, 16	; 0xa80000
     d4c:	45103ea1 	ldrmi	r3, [r0, #-3745]	; 0xfffff15f
     d50:	2aa4207f 	bcs	fe908f54 <memset+0xfe903d44>
     d54:	f4846fca 	vst4.<illegal width 64>	{d6[0],d8[0],d10[0],d12[0]}, [r4], sl
     d58:	bb0a8749 	bllt	2a2a84 <memset+0x29d874>
     d5c:	d40cb91c 	strle	fp, [ip], #-2332	; 0xfffff6e4
     d60:	7ca32d47 	stcvc	13, cr2, [r3], #284	; 0x11c
     d64:	4c2010f5 	stcmi	0, cr1, [r0], #-980	; 0xfffffc2c
     d68:	f8c1b68e 			; <UNDEFINED> instruction: 0xf8c1b68e
     d6c:	6d348955 			; <UNDEFINED> instruction: 0x6d348955
     d70:	fb65b680 	blx	196e77a <memset+0x196956a>
     d74:	e90e1f44 	stmdb	lr, {r2, r6, r8, r9, sl, fp, ip}
     d78:	342747c0 	strtcc	r4, [r7], #-1984	; 0xfffff840
     d7c:	fc7bfabc 	ldc2l	10, cr15, [fp], #-752	; 0xfffffd10	; <UNPREDICTABLE>
     d80:	e9708906 	ldmdb	r0!, {r1, r2, r8, fp, pc}^
     d84:	1ddbd650 	ldclne	6, cr13, [fp, #320]	; 0x140
     d88:	facbb5b9 	blx	ff2ee474 <memset+0xff2e9264>
     d8c:	4727297f 			; <UNDEFINED> instruction: 0x4727297f
     d90:	fde79e3e 	stc2l	14, cr9, [r7, #248]!	; 0xf8
     d94:	83447371 	movthi	r7, #17265	; 0x4371
     d98:	372e86b9 			; <UNDEFINED> instruction: 0x372e86b9
     d9c:	73307554 	teqvc	r0, #84, 10	; 0x15000000
     da0:	b90fd792 	stmdblt	pc, {r1, r4, r7, r8, r9, sl, ip, lr, pc}	; <UNPREDICTABLE>
     da4:	921754e1 	andsls	r5, r7, #-520093696	; 0xe1000000
     da8:	d150f16a 	cmple	r0, sl, ror #2	; <UNPREDICTABLE>
     dac:	0f17af7a 	svceq	0x0017af7a
     db0:	50512945 	subspl	r2, r1, r5, asr #18
     db4:	31d91e7d 	bicscc	r1, r9, sp, ror lr
     db8:	1edd7cc6 	cdpne	12, 13, cr7, cr13, cr6, {6}
     dbc:	916a59e3 	cmnls	sl, r3, ror #19
     dc0:	f5a1b9ea 			; <UNDEFINED> instruction: 0xf5a1b9ea
     dc4:	85b6faea 	ldrhi	pc, [r6, #2794]!	; 0xaea
     dc8:	abedcb31 	blge	ffb73a94 <memset+0xffb6e884>
     dcc:	2f3d6a4f 	svccs	0x003d6a4f
     dd0:	ed9eaa47 	vldr	s20, [lr, #284]	; 0x11c
     dd4:	025e7ac3 	subseq	r7, lr, #798720	; 0xc3000
     dd8:	5d326b39 	fldmdbxpl	r2!, {d6-d33}	;@ Deprecated
     ddc:	a7b028a8 	ldrge	r2, [r0, r8, lsr #17]!
     de0:	da7c36f9 	ble	1f0e9cc <memset+0x1f097bc>
     de4:	6c67e131 	stfvsp	f6, [r7], #-196	; 0xffffff3c
     de8:	2eccb314 	mcrcs	3, 6, fp, cr12, cr4, {0}
     dec:	d62fea2a 	strtle	lr, [pc], -sl, lsr #20
     df0:	10bac01f 	adcsne	ip, sl, pc, lsl r0
     df4:	b0bdf851 	adcslt	pc, sp, r1, asr r8	; <UNPREDICTABLE>
     df8:	62ad62a7 	adcvs	r6, sp, #1879048202	; 0x7000000a
     dfc:	7b5641ed 	blvc	15915b8 <memset+0x158c3a8>
     e00:	073c7a16 			; <UNDEFINED> instruction: 0x073c7a16
     e04:	41375f74 	teqmi	r7, r4, ror pc
     e08:	e084d19d 	umull	sp, r4, sp, r1
     e0c:	84e3e688 	strbthi	lr, [r3], #1672	; 0x688
     e10:	e314c91c 	tst	r4, #28, 18	; 0x70000
     e14:	682d1d13 	stmdavs	sp!, {r0, r1, r4, r8, sl, fp, ip}
     e18:	94307ed0 	ldrtls	r7, [r0], #-3792	; 0xfffff130
     e1c:	05eea92f 	strbeq	sl, [lr, #2351]!	; 0x92f
     e20:	659faaee 	ldrvs	sl, [pc, #2798]	; 1916 <data_balance_config_+0x17fa>
     e24:	1213dae8 	andsne	sp, r3, #232, 20	; 0xe8000
     e28:	c801fc38 	stmdagt	r1, {r3, r4, r5, sl, fp, ip, sp, lr, pc}
     e2c:	66c64551 			; <UNDEFINED> instruction: 0x66c64551
     e30:	f9cb5de4 			; <UNDEFINED> instruction: 0xf9cb5de4
     e34:	f6ef57b6 			; <UNDEFINED> instruction: 0xf6ef57b6
     e38:	51446eee 	smlalttpl	r6, r4, lr, lr
     e3c:	dd77ad52 	ldclle	13, cr10, [r7, #-328]!	; 0xfffffeb8
     e40:	f8f17569 			; <UNDEFINED> instruction: 0xf8f17569
     e44:	edfda2c1 	lfm	f2, 3, [sp, #772]!	; 0x304
     e48:	9ddac73e 	ldclls	7, cr12, [sl, #248]	; 0xf8
     e4c:	976c12e6 	strbls	r1, [ip, -r6, ror #5]!
     e50:	4ade66d1 	bmi	ff79a99c <memset+0xff79578c>
     e54:	b1df39ef 	bicslt	r3, pc, pc, ror #19
     e58:	bc7a610c 	ldflte	f6, [sl], #-48	; 0xffffffd0
     e5c:	8a9512f3 	bhi	fe545a30 <memset+0xfe540820>
     e60:	2fee8aee 	svccs	0x00ee8aee
     e64:	d703ee92 			; <UNDEFINED> instruction: 0xd703ee92
     e68:	c5fdbcf6 	ldrbgt	fp, [sp, #3318]!	; 0xcf6
     e6c:	556e163b 	strbpl	r1, [lr, #-1595]!	; 0xfffff9c5
     e70:	ee97cf74 	mrc	15, 4, ip, cr7, cr4, {3}
     e74:	ee08f76f 	cdp	7, 0, cr15, cr8, cr15, {3}
     e78:	b39ee871 	orrslt	lr, lr, #7405568	; 0x710000
     e7c:	a1df793d 	bicsge	r7, pc, sp, lsr r9	; <UNPREDICTABLE>
     e80:	fe037a44 			; <UNDEFINED> instruction: 0xfe037a44
     e84:	2e55d41c 	mrccs	4, 2, sp, cr5, cr12, {0}
     e88:	7df20511 	cfldr64vc	mvdx0, [r2, #68]!	; 0x44
     e8c:	794c8975 	stmdbvc	ip, {r0, r2, r4, r5, r6, r8, fp, pc}^
     e90:	e3ce0a31 	bic	r0, lr, #200704	; 0x31000
     e94:	c2565701 	subsgt	r5, r6, #262144	; 0x40000
     e98:	439a8f7c 	orrsmi	r8, sl, #124, 30	; 0x1f0
     e9c:	b429a8be 	strtlt	sl, [r9], #-2238	; 0xfffff742
     ea0:	5b3794b8 	blpl	de6188 <memset+0xde0f78>
     ea4:	3f242f95 	svccc	0x00242f95
     ea8:	c9cebea6 	stmibgt	lr, {r1, r2, r5, r7, r9, sl, fp, ip, sp, pc}^
     eac:	86f44e62 	ldrbthi	r4, [r4], r2, ror #28
     eb0:	dd7563c4 	ldclle	3, cr6, [r5, #-784]!	; 0xfffffcf0
     eb4:	c0c06213 	sbcgt	r6, r0, r3, lsl r2
     eb8:	b15b61fb 	ldrshlt	r6, [fp, #-27]	; 0xffffffe5
     ebc:	b65371b6 			; <UNDEFINED> instruction: 0xb65371b6
     ec0:	722a722b 	eorvc	r7, sl, #-1342177278	; 0xb0000002
     ec4:	594b9e16 	stmdbpl	fp, {r1, r2, r4, r9, sl, fp, ip, pc}^
     ec8:	983122ea 	ldmdals	r1!, {r1, r3, r5, r6, r7, r9, sp}
     ecc:	2de41a87 			; <UNDEFINED> instruction: 0x2de41a87
     ed0:	53c0b419 	bicpl	fp, r0, #419430400	; 0x19000000
     ed4:	60dccf81 	sbcsvs	ip, ip, r1, lsl #31
     ed8:	9bd56cd9 	blls	ff55c244 <memset+0xff557034>
     edc:	3abebeff 	bcc	fefb0ae0 <memset+0xfefab8d0>
     ee0:	b38a40dc 	orrlt	r4, sl, #220	; 0xdc
     ee4:	bc7acebd 	ldcllt	14, cr12, [sl], #-756	; 0xfffffd0c
     ee8:	26e7a607 	strbtcs	sl, [r7], r7, lsl #12
     eec:	4c136b0b 			; <UNDEFINED> instruction: 0x4c136b0b
     ef0:	ae81a552 	mcrge	5, 4, sl, cr1, cr2, {2}
     ef4:	12f1f1c4 	rscsne	pc, r1, #196, 2	; 0x31
     ef8:	d9181c05 	ldmdble	r8, {r0, r2, sl, fp, ip}
     efc:	0db75a5f 			; <UNDEFINED> instruction: 0x0db75a5f
     f00:	c3df5c8f 	bicsgt	r5, pc, #36608	; 0x8f00
     f04:	bf51bc07 	svclt	0x0051bc07
     f08:	54d3a552 	ldrbpl	sl, [r3], #1362	; 0x552
     f0c:	3782b4e9 	strcc	fp, [r2, r9, ror #9]
     f10:	75183352 	ldrvc	r3, [r8, #-850]	; 0xfffffcae
     f14:	640fcf16 	strvs	ip, [pc], #-3862	; f1c <data_balance_config_+0xe00>
     f18:	421444f3 	andsmi	r4, r4, #-218103808	; 0xf3000000
     f1c:	1f64e541 	svcne	0x0064e541
     f20:	2fa4f454 	svccs	0x00a4f454
     f24:	14785533 	ldrbtne	r5, [r8], #-1331	; 0xfffffacd
     f28:	a46bc3fe 	strbtge	ip, [fp], #-1022	; 0xfffffc02
     f2c:	e44b5fc1 	strb	r5, [fp], #-4033	; 0xfffff03f
     f30:	18c1b0ab 	stmiane	r1, {r0, r1, r3, r5, r7, ip, sp, pc}^
     f34:	681327b5 	ldmdavs	r3, {r0, r2, r4, r5, r7, r8, r9, sl, sp}
     f38:	dd0ae4f5 	cfstrsle	mvf14, [sl, #-980]	; 0xfffffc2c
     f3c:	6cae44a4 	cfstrsvs	mvf4, [lr], #656	; 0x290
     f40:	88a80d9f 	stmiahi	r8!, {r0, r1, r2, r3, r4, r7, r8, sl, fp}
     f44:	1e7143c5 	cdpne	3, 7, cr4, cr1, cr5, {6}
     f48:	79d03747 	ldmibvc	r0, {r0, r1, r2, r6, r8, r9, sl, ip, sp}^
     f4c:	bbaf0538 	bllt	febc2434 <memset+0xfebbd224>
     f50:	44fadb86 	ldrbtmi	sp, [sl], #2950	; 0xb86
     f54:	a08c388e 	addge	r3, ip, lr, lsl #17
     f58:	a4d8d5e3 	ldrbge	sp, [r8], #1507	; 0x5e3
     f5c:	e5f3d8df 	ldrb	sp, [r3, #2271]!	; 0x8df
     f60:	e746e40d 	strb	lr, [r6, -sp, lsl #8]
     f64:	af4ebbcb 	svcge	0x004ebbcb
     f68:	1e15c1ad 	mnfnedp	f4, #5.0
     f6c:	622d3853 	eorvs	r3, sp, #5439488	; 0x530000
     f70:	fa66d794 	blx	19b6dc8 <memset+0x19b1bb8>
     f74:	c4e6fb54 	strbtgt	pc, [r6], #2900	; 0xb54	; <UNPREDICTABLE>
     f78:	faaffb0d 	blx	febffbb4 <memset+0xfebfa9a4>
     f7c:	9b28dc94 	blls	a381d4 <memset+0xa32fc4>
     f80:	4544d948 	strbmi	sp, [r4, #-2376]	; 0xfffff6b8
     f84:	b11bf30f 	tstlt	fp, pc, lsl #6	; <UNPREDICTABLE>
     f88:	f38f8025 	vaddl.u8	q4, d15, d21
     f8c:	bb652a19 	bllt	194b7f8 <memset+0x19465e8>
     f90:	3ec6d389 	cdpcc	3, 12, cr13, cr6, cr9, {4}
     f94:	3e0fd933 			; <UNDEFINED> instruction: 0x3e0fd933
     f98:	711b7334 	tstvc	fp, r4, lsr r3
     f9c:	697feb5f 	ldmdbvs	pc!, {r0, r1, r2, r3, r4, r6, r8, r9, fp, sp, lr, pc}^	; <UNPREDICTABLE>
     fa0:	59326f9f 	ldmdbpl	r2!, {r0, r1, r2, r3, r4, r7, r8, r9, sl, fp, sp, lr}
     fa4:	6bf7af43 	blvs	ffdeccb8 <memset+0xffde7aa8>
     fa8:	de6e98d6 	mcrle	8, 3, r9, cr14, cr6, {6}
     fac:	3e4a1278 	mcrcc	2, 2, r1, cr10, cr8, {3}
     fb0:	9328b317 			; <UNDEFINED> instruction: 0x9328b317
     fb4:	418eb44d 	orrmi	fp, lr, sp, asr #8
     fb8:	c49645c1 	ldrgt	r4, [r6], #1473	; 0x5c1
     fbc:	a2e2b6c5 	rscge	fp, r2, #206569472	; 0xc500000
     fc0:	5cd162e2 	lfmpl	f6, 2, [r1], {226}	; 0xe2
     fc4:	c5cb176c 	strbgt	r1, [fp, #1900]	; 0x76c
     fc8:	0be2e2b6 	bleq	ff8b9aa8 <memset+0xff8b4898>
     fcc:	e75b22e0 	ldrb	r2, [fp, -r0, ror #5]
     fd0:	c5c491a2 	strbgt	r9, [r4, #418]	; 0x1a2
     fd4:	e2a2e2a6 	adc	lr, r2, #1610612746	; 0x6000000a
     fd8:	b43ee162 	ldrtlt	lr, [lr], #-354	; 0xfffffe9e
     fdc:	54d8b962 	ldrbpl	fp, [r8], #2402	; 0x962
     fe0:	5c017c5c 	stcpl	12, cr7, [r1], {92}	; 0x5c
     fe4:	e0605e5c 	rsb	r5, r0, ip, asr lr
     fe8:	e770b8eb 	ldrb	fp, [r0, -fp, ror #17]!
     fec:	4e984dd4 	mrcmi	13, 4, r4, cr8, cr4, {6}
     ff0:	5b9bc8f3 	blpl	fe6f33c4 <memset+0xfe6ee1b4>
     ff4:	d59f2214 	ldrle	r2, [pc, #532]	; 1210 <data_balance_config_+0x10f4>
     ff8:	b2615ab4 	rsblt	r5, r1, #180, 20	; 0xb4000
     ffc:	85724c70 	ldrbhi	r4, [r2, #-3184]!	; 0xfffff390
    1000:	7c8c5b14 	vstmiavc	ip, {d5-d14}
    1004:	a3d2839b 	bicsge	r8, r2, #1811939330	; 0x6c000002
    1008:	dc3363be 	ldcle	3, cr6, [r3], #-760	; 0xfffffd08
    100c:	96d8b407 	ldrbls	fp, [r8], r7, lsl #8
    1010:	63b6b8ea 			; <UNDEFINED> instruction: 0x63b6b8ea
    1014:	a49a9cbb 	ldrge	r9, [sl], #3259	; 0xcbb
    1018:	6e1e6637 	mrcvs	6, 0, r6, cr14, cr7, {1}
    101c:	f697d23b 			; <UNDEFINED> instruction: 0xf697d23b
    1020:	85ae0515 	strhi	r0, [lr, #1301]!	; 0x515
    1024:	cd7c136b 	ldclgt	3, cr1, [ip, #-428]!	; 0xfffffe54
    1028:	a474b88d 	ldrbtge	fp, [r4], #-2189	; 0xfffff773
    102c:	3d4986bb 	stclcc	6, cr8, [r9, #-748]	; 0xfffffd14
    1030:	0212f30f 	andseq	pc, r2, #1006632960	; 0x3c000000
    1034:	28e7717f 	stmiacs	r7!, {r0, r1, r2, r3, r4, r5, r6, r8, ip, sp, lr}^
    1038:	6cc53d01 	stclvs	13, cr3, [r5], {1}
    103c:	44a45c6f 	strtmi	r5, [r4], #3183	; 0xc6f
    1040:	2b9772da 	blcs	fe5ddbb0 <memset+0xfe5d89a0>
    1044:	e3e7054f 	mvn	r0, #331350016	; 0x13c00000
    1048:	2d0a63cd 	stccs	3, cr6, [sl, #-820]	; 0xfffffccc
    104c:	e5a1a79f 	str	sl, [r1, #1951]!	; 0x79f
    1050:	745e5e22 	ldrbvc	r5, [lr], #-3618	; 0xfffff1de
    1054:	b735e1e6 	ldrlt	lr, [r5, -r6, ror #3]!
    1058:	abab56bd 	blge	fead6b54 <memset+0xfead1944>
    105c:	1ecff526 	cdpne	5, 12, cr15, cr15, cr6, {1}
    1060:	5e4c31d2 	mcrpl	1, 2, r3, cr12, cr2, {6}
    1064:	956e3566 	strbls	r3, [lr, #-1382]!	; 0xfffffa9a
    1068:	9e6c074e 	cdpls	7, 6, cr0, cr12, cr14, {2}
    106c:	5b5142a1 	blpl	1451af8 <memset+0x144c8e8>
    1070:	a8af7b51 	stmiage	pc!, {r0, r4, r6, r8, r9, fp, ip, sp, lr}	; <UNPREDICTABLE>
    1074:	72eb113d 	rscvc	r1, fp, #1073741839	; 0x4000000f
    1078:	3fbfcfb8 	svccc	0x00bfcfb8
    107c:	129a3a13 	addsne	r3, sl, #77824	; 0x13000
    1080:	78c838e4 	stmiavc	r8, {r2, r5, r6, r7, fp, ip, sp}^
    1084:	b0647046 	rsblt	r7, r4, r6, asr #32
    1088:	019c3740 	orrseq	r3, ip, r0, asr #14
    108c:	f36083c7 	vcgt.u32	q12, q8, <illegal reg q3.5>
    1090:	b2a98588 	adclt	r8, r9, #136, 10	; 0x22000000
    1094:	eaef2956 	b	ffbcb5f4 <memset+0xffbc63e4>
    1098:	1515c306 	ldrne	ip, [r5, #-774]	; 0xfffffcfa
    109c:	812a29dc 	ldrdhi	r2, [sl, -ip]!
    10a0:	d2f31dee 	rscsle	r1, r3, #15232	; 0x3b80
    10a4:	732d2039 			; <UNDEFINED> instruction: 0x732d2039
    10a8:	4ffdca22 	svcmi	0x00fdca22
    10ac:	1c501da5 	mrrcne	13, 10, r1, r0, cr5
    10b0:	ca2b391f 	bgt	acf534 <memset+0xaca324>
    10b4:	e7ca14cf 	strb	r1, [sl, pc, asr #9]
    10b8:	201caf28 	andscs	sl, ip, r8, lsr #30
    10bc:	5da037cc 	stcpl	7, cr3, [r0, #816]!	; 0x330
    10c0:	544ceac3 	strbpl	lr, [ip], #-2755	; 0xfffff53d
    10c4:	4bae041b 	blmi	feb82138 <memset+0xfeb7cf28>
    10c8:	7e1613e3 	cdpvc	3, 1, cr1, cr6, cr3, {7}
    10cc:	10d22144 	sbcsne	r2, r2, r4, asr #2
    10d0:	8ae38a42 	bhi	ff8e39e0 <memset+0xff8de7d0>
    10d4:	fc7345e3 	ldc2l	5, cr4, [r3], #-908	; 0xfffffc74
    10d8:	51454ba3 	smlaltbpl	r4, r5, r3, fp
    10dc:	72b8a931 	adcsvc	sl, r8, #802816	; 0xc4000
    10e0:	dc4c3955 	mcrrle	9, 5, r3, ip, cr5	; <UNPREDICTABLE>
    10e4:	f033ea22 			; <UNDEFINED> instruction: 0xf033ea22
    10e8:	107e1fd0 	ldrsbtne	r1, [lr], #-240	; 0xffffff10
    10ec:	67be6ecd 	ldrvs	r6, [lr, sp, asr #29]!
    10f0:	5819807f 	ldmdapl	r9, {r0, r1, r2, r3, r4, r5, r6, pc}
    10f4:	2c22d9cc 			; <UNDEFINED> instruction: 0x2c22d9cc
    10f8:	7ed03728 	cdpvc	7, 13, cr3, cr0, cr8, {1}
    10fc:	b73fd6ec 	ldrlt	sp, [pc, -ip, ror #13]!
    1100:	b75dc6b4 			; <UNDEFINED> instruction: 0xb75dc6b4
    1104:	0ce03adb 	vstmiaeq	r0!, {s7-s225}
    1108:	4e44c584 	cdpmi	5, 4, cr12, cr4, cr4, {4}
    110c:	1017169e 	mulsne	r7, lr, r6
    1110:	d644cf54 			; <UNDEFINED> instruction: 0xd644cf54
    1114:	a84a7818 	stmdage	sl, {r3, r4, fp, ip, sp, lr}^
    1118:	3b3b1d62 	blcc	ec86a8 <memset+0xec3498>
    111c:	9ed502d8 	mrcls	2, 6, r0, cr5, cr8, {6}
    1120:	06c95210 			; <UNDEFINED> instruction: 0x06c95210
    1124:	cf0b5415 	svcgt	0x000b5415
    1128:	acf68b00 	vldmiage	r6!, {d24-d23}
    112c:	1125143d 			; <UNDEFINED> instruction: 0x1125143d
    1130:	14cb0ab8 	strbne	r0, [fp], #2744	; 0xab8
    1134:	2e7a3edd 	mrccs	14, 3, r3, cr10, cr13, {6}
    1138:	0f05ba26 	svceq	0x0005ba26
    113c:	b747314f 	strblt	r3, [r7, -pc, asr #2]
    1140:	e843f0b7 	stmda	r3, {r0, r1, r2, r4, r5, r7, ip, sp, lr, pc}^
    1144:	ee8fdc01 	cdp	12, 8, cr13, cr15, cr1, {0}
    1148:	80521833 	subshi	r1, r2, r3, lsr r8
    114c:	1232a055 	eorsne	sl, r2, #85	; 0x55
    1150:	6129f756 	msrvs	(UNDEF: 57), r6
    1154:	781334e2 	ldmdavc	r3, {r1, r5, r6, r7, sl, ip, sp}
    1158:	f7fc2e23 			; <UNDEFINED> instruction: 0xf7fc2e23
    115c:	5633eb1e 			; <UNDEFINED> instruction: 0x5633eb1e
    1160:	29a49fc8 	stmibcs	r4!, {r3, r6, r7, r8, r9, sl, fp, ip, pc}
    1164:	9c8d3322 	stcls	3, cr3, [sp], {34}	; 0x22
    1168:	5f6bdbc1 	svcpl	0x006bdbc1
    116c:	7aefaeb6 	bvc	ffbecc4c <memset+0xffbe7a3c>
    1170:	4c1aa745 	ldcmi	7, cr10, [sl], {69}	; 0x45
    1174:	64f834ce 	ldrbtvs	r3, [r8], #1230	; 0x4ce
    1178:	b6cf0679 			; <UNDEFINED> instruction: 0xb6cf0679
    117c:	6eac1964 	vfmsvs.f16	s2, s24, s9	; <UNPREDICTABLE>
    1180:	65e8324b 	strbvs	r3, [r8, #587]!	; 0x24b
    1184:	831830ca 	tsthi	r8, #202	; 0xca
    1188:	25c2be37 	strbcs	fp, [r2, #3639]	; 0xe37
    118c:	4c0da861 	stcmi	8, cr10, [sp], {97}	; 0x61
    1190:	1c18927d 	lfmne	f1, 1, [r8], {125}	; 0x7d
    1194:	d249ad25 	suble	sl, r9, #2368	; 0x940
    1198:	53654140 	cmnpl	r5, #64, 2
    119c:	4bedfc2a 	blmi	ffb8024c <memset+0xffb7b03c>
    11a0:	9368a8de 	cmnls	r8, #14548992	; 0xde0000
    11a4:	8006fa52 	andhi	pc, r6, r2, asr sl	; <UNPREDICTABLE>
    11a8:	9e42a067 	cdpls	0, 4, cr10, cr2, cr7, {3}
    11ac:	d49ae6f4 	ldrle	lr, [sl], #1780	; 0x6f4
    11b0:	18a978f7 	stmiane	r9!, {r0, r1, r2, r4, r5, r6, r7, fp, ip, sp, lr}
    11b4:	c8eb9be0 	stmiagt	fp!, {r5, r6, r7, r8, r9, fp, ip, pc}^
    11b8:	38940452 	ldmcc	r4, {r1, r4, r6, sl}
    11bc:	076dbb8c 	strbeq	fp, [sp, -ip, lsl #23]!
    11c0:	4996afb9 	ldmibmi	r6, {r0, r3, r4, r5, r7, r8, r9, sl, fp, sp, pc}
    11c4:	746b52f3 	strbtvc	r5, [fp], #-755	; 0xfffffd0d
    11c8:	ca3797ea 	bgt	de7178 <memset+0xde1f68>
    11cc:	c0a03cc8 	adcgt	r3, r0, r8, asr #25
    11d0:	35e67af3 	strbcc	r7, [r6, #2803]!	; 0xaf3
    11d4:	d6b018b3 			; <UNDEFINED> instruction: 0xd6b018b3
    11d8:	64cd31be 	strbvs	r3, [sp], #446	; 0x1be
    11dc:	d638bd40 	ldrtle	fp, [r8], -r0, asr #26
    11e0:	dde541b6 	stflee	f4, [r5, #728]!	; 0x2d8
    11e4:	0a32e109 	beq	cb9610 <memset+0xcb4400>
    11e8:	c5b30ab3 	ldrgt	r0, [r3, #2739]!	; 0xab3
    11ec:	f42d5dc7 			; <UNDEFINED> instruction: 0xf42d5dc7
    11f0:	24c7ba91 	strbcs	fp, [r7], #2705	; 0xa91
    11f4:	c35d04f0 	cmpgt	sp, #240, 8	; 0xf0000000
    11f8:	e8537a2c 	ldmda	r3, {r2, r3, r5, r9, fp, ip, sp, lr}^
    11fc:	58c23815 	stmiapl	r2, {r0, r2, r4, fp, ip, sp}^
    1200:	1636f234 			; <UNDEFINED> instruction: 0x1636f234
    1204:	4eb5b73f 	mrcmi	7, 5, fp, cr5, cr15, {1}
    1208:	3bddb2fb 	blcc	ff76ddfc <memset+0xff768bec>
    120c:	678dadd8 			; <UNDEFINED> instruction: 0x678dadd8
    1210:	049e826a 	ldreq	r8, [lr], #618	; 0x26a
    1214:	d6384dce 	ldrtle	r4, [r8], -lr, asr #27
    1218:	e39a19be 	orrs	r1, sl, #3112960	; 0x2f8000
    121c:	9ed33557 	mrcls	5, 6, r3, cr3, cr7, {2}
    1220:	69e7ba3a 	stmibvs	r7!, {r1, r3, r4, r5, r9, fp, ip, sp, pc}^
    1224:	0f7e9743 	svceq	0x007e9743
    1228:	c59835a8 	ldrgt	r3, [r8, #1448]	; 0x5a8
    122c:	fa146fee 	blx	51d1ec <memset+0x517fdc>
    1230:	12abd37a 	adcne	sp, fp, #-402653183	; 0xe8000001
    1234:	03773d2c 	cmneq	r7, #44, 26	; 0xb00
    1238:	d639c89d 			; <UNDEFINED> instruction: 0xd639c89d
    123c:	9cd57502 	cfldr64ls	mvdx7, [r5], {2}
    1240:	f8b4d15d 			; <UNDEFINED> instruction: 0xf8b4d15d
    1244:	9dae2d68 	stcls	13, cr2, [lr, #416]!	; 0x1a0
    1248:	3290ae43 	addscc	sl, r0, #1072	; 0x430
    124c:	ae9f3feb 	cdpge	15, 9, cr3, cr15, cr11, {7}
    1250:	477af5cf 	ldrbmi	pc, [sl, -pc, asr #11]!	; <UNPREDICTABLE>
    1254:	4dcfeed3 	stclmi	14, cr14, [pc, #844]	; 15a8 <data_balance_config_+0x148c>
    1258:	d688860d 	strle	r8, [r8], sp, lsl #12
    125c:	a6ebfeb9 			; <UNDEFINED> instruction: 0xa6ebfeb9
    1260:	9dab7b7e 			; <UNDEFINED> instruction: 0x9dab7b7e
    1264:	baff5b77 	blt	fffd8048 <memset+0xfffd2e38>
    1268:	be355d6b 	cdplt	13, 3, cr5, cr5, cr11, {3}
    126c:	7f033816 	svcvc	0x00033816
    1270:	7809bbb3 	stmdavc	r9, {r0, r1, r4, r5, r7, r8, r9, fp, ip, sp, pc}
    1274:	ff9e5b75 			; <UNDEFINED> instruction: 0xff9e5b75
    1278:	8bf0136d 	blhi	ffc06034 <memset+0xffc00e24>
    127c:	e066991f 	rsb	r9, r6, pc, lsl r9
    1280:	721621db 	andsvc	r2, r6, #-1073741770	; 0xc0000036
    1284:	959a0c6e 	ldrls	r0, [sl, #3182]	; 0xc6e
    1288:	d0177419 	andsle	r7, r7, r9, lsl r4
    128c:	914e9149 	cmpls	lr, r9, asr #2
    1290:	27497f6e 	strbcs	r7, [r9, -lr, ror #30]
    1294:	49176f8a 	ldmdbmi	r7, {r1, r3, r7, r8, r9, sl, fp, sp, lr}
    1298:	a7f68bba 			; <UNDEFINED> instruction: 0xa7f68bba
    129c:	9dba850b 	cfldr32ls	mvfx8, [sl, #44]!	; 0x2c
    12a0:	63892ea1 	orrvs	r2, r9, #2576	; 0xa10
    12a4:	e36dbeb5 	cmn	sp, #2896	; 0xb50
    12a8:	478d5206 	strmi	r5, [sp, r6, lsl #4]
    12ac:	fc662476 	stc2l	4, cr2, [r6], #-472	; 0xfffffe28
    12b0:	d4db8911 	ldrble	r8, [fp], #2321	; 0x911
    12b4:	acf1583c 	ldclge	8, cr5, [r1], #240	; 0xf0
    12b8:	67ad9e68 	strvs	r9, [sp, r8, ror #28]!
    12bc:	cc2a135e 	stcgt	3, cr1, [sl], #-376	; 0xfffffe88
    12c0:	cba54403 	blgt	fe9522d4 <memset+0xfe94d0c4>
    12c4:	f81f48f1 			; <UNDEFINED> instruction: 0xf81f48f1
    12c8:	99575f01 	ldmdbls	r7, {r0, r8, r9, sl, fp, ip, lr}^
    12cc:	cc35b260 	lfmgt	f3, 1, [r5], #-384	; 0xfffffe80
    12d0:	618d0409 	orrvs	r0, sp, r9, lsl #8
    12d4:	de8327a1 	cdple	7, 8, cr2, cr3, cr1, {5}
    12d8:	9ab5b133 	bls	fed6d7ac <memset+0xfed6859c>
    12dc:	830b5da7 	movwhi	r5, #48551	; 0xbda7
    12e0:	77abf296 			; <UNDEFINED> instruction: 0x77abf296
    12e4:	fafaf1fa 	blx	ffebdad4 <memset+0xffeb88c4>
    12e8:	6aead7b6 	bvs	ffab71c8 <memset+0xffab1fb8>
    12ec:	a5591f98 	ldrbge	r1, [r9, #-3992]	; 0xfffff068
    12f0:	2d25cb57 	fstmdbxcs	r5!, {d12-d54}	;@ Deprecated
    12f4:	93a2dbf2 			; <UNDEFINED> instruction: 0x93a2dbf2
    12f8:	7480c7cd 	strvc	ip, [r0], #1997	; 0x7cd
    12fc:	6137580e 	teqvs	r7, lr, lsl #16
    1300:	6d0ba751 	stcvs	7, cr10, [fp, #-324]	; 0xfffffebc
    1304:	e52d4ee4 	str	r4, [sp, #-3812]!	; 0xfffff11c
    1308:	41eeb628 	mvnmi	fp, r8, lsr #12
    130c:	9091201e 	addsls	r2, r1, lr, lsl r0
    1310:	d6659712 			; <UNDEFINED> instruction: 0xd6659712
    1314:	ad57caf8 	vldrge	s25, [r7, #-992]	; 0xfffffc20
    1318:	36058d51 			; <UNDEFINED> instruction: 0x36058d51
    131c:	c130f52b 	teqgt	r0, fp, lsr #10	; <UNPREDICTABLE>
    1320:	3656437c 			; <UNDEFINED> instruction: 0x3656437c
    1324:	a5cacc05 	strbge	ip, [sl, #3077]	; 0xc05
    1328:	5e9163c9 	cdppl	3, 9, cr6, cr1, cr9, {6}
    132c:	f20f264d 	vmax.s8	q1, <illegal reg q7.5>, <illegal reg q6.5>
    1330:	ee43e616 	mcr	6, 2, lr, cr3, cr6, {0}
    1334:	5d66ed88 	stclpl	13, cr14, [r6, #-544]!	; 0xfffffde0
    1338:	c23c39ce 	eorsgt	r3, ip, #3375104	; 0x338000
    133c:	90bef756 	adcsls	pc, lr, r6, asr r7	; <UNPREDICTABLE>
    1340:	5d84be74 	stcpl	14, cr11, [r4, #464]	; 0x1d0
    1344:	b01ce925 	andslt	lr, ip, r5, lsr #18
    1348:	c331025b 	teqgt	r1, #-1342177275	; 0xb0000005
    134c:	288ff345 	stmcs	pc, {r0, r2, r6, r8, r9, ip, sp, lr, pc}	; <UNPREDICTABLE>
    1350:	48ab48ae 	stmiami	fp!, {r1, r2, r3, r5, r7, fp, lr}
    1354:	5b69345b 	blpl	1a4e4c8 <memset+0x1a492b8>
    1358:	8940a00f 	stmdbhi	r0, {r0, r1, r2, r3, sp, pc}^
    135c:	bb929851 	bllt	fe4a74a8 <memset+0xfe4a2298>
    1360:	ac1ee822 	ldcge	8, cr14, [lr], {34}	; 0x22
    1364:	1a118c5b 	bne	4644d8 <memset+0x45f2c8>
    1368:	23ff19e7 	mvnscs	r1, #3784704	; 0x39c000
    136c:	d098fa19 	addsle	pc, r8, r9, lsl sl	; <UNPREDICTABLE>
    1370:	f2b4954b 	vext.8	<illegal reg q4.5>, q2, <illegal reg q5.5>, #5
    1374:	63c49660 	bicvs	r9, r4, #96, 12	; 0x6000000
    1378:	3f835981 	svccc	0x00835981
    137c:	6280f7c6 	addvs	pc, r0, #51904512	; 0x3180000
    1380:	7f8d18ed 	svcvc	0x008d18ed
    1384:	5531b7b3 	ldrpl	fp, [r1, #-1971]!	; 0xfffff84d
    1388:	b24205f8 	sublt	r0, r2, #248, 10	; 0x3e000000
    138c:	852ec6f6 	strhi	ip, [lr, #-1782]!	; 0xfffff90a
    1390:	4caa6537 	cfstr32mi	mvfx6, [sl], #220	; 0xdc
    1394:	c5ae8ac0 	strgt	r8, [lr, #2752]!	; 0xac0
    1398:	8b312487 	blhi	c4a5bc <memset+0xc453ac>
    139c:	81d92487 	bicshi	r2, r9, r7, lsl #9
    13a0:	02fe04ef 	rscseq	r0, lr, #-285212672	; 0xef000000
    13a4:	f28ea1b3 	vsra.s64	d10, d19, #50
    13a8:	df42fa4d 	svcle	0x0042fa4d
    13ac:	00ed9517 	rsceq	r9, sp, r7, lsl r5
    13b0:	4556c2c2 	ldrbmi	ip, [r6, #-706]	; 0xfffffd3e
    13b4:	8cf2cf0e 	ldclhi	15, cr12, [r2], #56	; 0x38
    13b8:	775def71 			; <UNDEFINED> instruction: 0x775def71
    13bc:	c2d775ff 	sbcsgt	r7, r7, #1069547520	; 0x3fc00000
    13c0:	51227472 			; <UNDEFINED> instruction: 0x51227472
    13c4:	8e6e62b0 	mcrhi	2, 3, r6, cr14, cr0, {5}
    13c8:	3dd5e9ab 	vldrcc.16	s29, [r5, #342]	; 0x156	; <UNPREDICTABLE>
    13cc:	b476ee80 	ldrbtlt	lr, [r6], #-3712	; 0xfffff180
    13d0:	7f97d32e 	svcvc	0x0097d32e
    13d4:	938393f2 	orrls	r9, r3, #-939524093	; 0xc8000003
    13d8:	4264cc7a 	rsbmi	ip, r4, #31232	; 0x7a00
    13dc:	ac3b856b 	cfldr32ge	mvfx8, [fp], #-428	; 0xfffffe54
    13e0:	1494a2a3 	ldrne	sl, [r4], #675	; 0x2a3
    13e4:	1824f779 	stmdane	r4!, {r0, r3, r4, r5, r6, r8, r9, sl, ip, sp, lr, pc}
    13e8:	5fbbb174 	svcpl	0x00bbb174
    13ec:	39d61078 	ldmibcc	r6, {r3, r4, r5, r6, ip}^
    13f0:	b7512f3b 	smmlarlt	r1, fp, pc, r2	; <UNPREDICTABLE>
    13f4:	a772be0b 	ldrbge	fp, [r2, -fp, lsl #28]!
    13f8:	2ac781eb 	bcs	ff1e1bac <memset+0xff1dc99c>
    13fc:	15267dbd 	strne	r7, [r6, #-3517]!	; 0xfffff243
    1400:	f3aa72e9 	vmlal.u32	<illegal reg q3.5>, d26, d9[1]
    1404:	cb9c05b9 	blgt	fe702af0 <memset+0xfe6fd8e0>
    1408:	e4adb564 	strt	fp, [sp], #1380	; 0x564
    140c:	bda816e2 	stclt	6, cr1, [r8, #904]!	; 0x388
    1410:	aaccd2f3 	bge	ff335fe4 <memset+0xff330dd4>
    1414:	ea6285ae 	b	18a2ad4 <memset+0x189d8c4>
    1418:	5bd530de 	blpl	ff54d798 <memset+0xff548588>
    141c:	cb116dad 	blgt	45cad8 <memset+0x4578c8>
    1420:	9fb2c8d4 	svcls	0x00b2c8d4
    1424:	713788e4 	teqvc	r7, r4, ror #17
    1428:	6c21cc21 	stcvs	12, cr12, [r1], #-132	; 0xffffff7c
    142c:	367b88f2 			; <UNDEFINED> instruction: 0x367b88f2
    1430:	ccc61b9c 	vstmiagt	r6, {d17-d30}
    1434:	f754b81a 			; <UNDEFINED> instruction: 0xf754b81a
    1438:	ccdbc7a8 	ldclgt	7, cr12, [fp], {168}	; 0xa8
    143c:	a05dabd9 	ldrsbge	sl, [sp], #-185	; 0xffffff47
    1440:	954afaf9 	strbls	pc, [sl, #-2809]	; 0xfffff507	; <UNPREDICTABLE>
    1444:	5297d8c7 	addspl	sp, r7, #13041664	; 0xc70000
    1448:	c755b9a1 	ldrbgt	fp, [r5, -r1, lsr #19]
    144c:	0aef8448 	beq	ffbe2574 <memset+0xffbdd364>
    1450:	0cc3879a 	stcleq	7, cr8, [r3], {154}	; 0x9a
    1454:	1352ee6c 	cmpne	r2, #108, 28	; 0x6c0
    1458:	5a3155f5 	bpl	c56c34 <memset+0xc51a24>
    145c:	18b0fa31 	ldmne	r0!, {r0, r4, r5, r9, fp, ip, sp, lr, pc}
    1460:	8dc54aed 	vstrhi	s9, [r5, #948]	; 0x3b4
    1464:	86e874c4 	strbthi	r7, [r8], r4, asr #9
    1468:	b6056ca8 	strlt	r6, [r5], -r8, lsr #25
    146c:	f6008b41 			; <UNDEFINED> instruction: 0xf6008b41
    1470:	7622b9f9 			; <UNDEFINED> instruction: 0x7622b9f9
    1474:	bd7ec48e 	cfldrdlt	mvd12, [lr, #-568]!	; 0xfffffdc8
    1478:	64dec477 	ldrbvs	ip, [lr], #1143	; 0x477
    147c:	1897aaf2 	ldmne	r7, {r1, r4, r5, r6, r7, r9, fp, sp, pc}
    1480:	8fe47174 	svchi	0x00e47174
    1484:	a2c41de3 	sbcge	r1, r4, #14528	; 0x38c0
    1488:	f159f15d 			; <UNDEFINED> instruction: 0xf159f15d
    148c:	5f3e68b9 	svcpl	0x003e68b9
    1490:	093253d8 	ldmdbeq	r2!, {r3, r4, r6, r7, r8, r9, ip, lr}
    1494:	8e21ca90 			; <UNDEFINED> instruction: 0x8e21ca90
    1498:	a606e861 	strge	lr, [r6], -r1, ror #16
    149c:	d6eebcb1 			; <UNDEFINED> instruction: 0xd6eebcb1
    14a0:	154b71d7 	strbne	r7, [fp, #-471]	; 0xfffffe29
    14a4:	7158dcd6 	ldrsbvc	sp, [r8, #-198]	; 0xffffff3a
    14a8:	0dc6ef1b 	stcleq	15, cr14, [r6, #108]	; 0x6c
    14ac:	7d5d6ddc 	ldclvc	13, cr6, [sp, #-880]	; 0xfffffc90
    14b0:	ee1c5dea 	cdp	13, 1, cr5, cr12, cr10, {7}
    14b4:	7662d45e 			; <UNDEFINED> instruction: 0x7662d45e
    14b8:	59159ea2 	ldmdbpl	r5, {r1, r5, r7, r9, sl, fp, ip, pc}
    14bc:	37fca902 	ldrbcc	sl, [ip, r2, lsl #18]!
    14c0:	e4ebc09c 	strbt	ip, [fp], #156	; 0x9c
    14c4:	08aae65c 	stmiaeq	sl!, {r2, r3, r4, r6, r9, sl, sp, lr, pc}
    14c8:	ca16ded5 	bgt	5b9024 <memset+0x5b3e14>
    14cc:	81876690 			; <UNDEFINED> instruction: 0x81876690
    14d0:	eb62ab62 	bl	18ac260 <memset+0x18a7050>
    14d4:	b14a920e 	cmplt	sl, lr, lsl #4
    14d8:	f06e81ef 			; <UNDEFINED> instruction: 0xf06e81ef
    14dc:	69187e5d 	ldmdbvs	r8, {r0, r2, r3, r4, r6, r9, sl, fp, ip, sp, lr}
    14e0:	08356e1e 	ldmdaeq	r5!, {r1, r2, r3, r4, r9, sl, fp, sp, lr}
    14e4:	7d4b1fab 	stclvc	15, cr1, [fp, #-684]	; 0xfffffd54
    14e8:	7155fbe5 	cmpvc	r5, r5, ror #23	; <UNPREDICTABLE>
    14ec:	d4c60ddd 	strble	r0, [r6], #3549	; 0xddd
    14f0:	1e753020 	cdpne	0, 7, cr3, cr5, cr0, {1}
    14f4:	0b02861f 	bleq	a2d78 <memset+0x9db68>
    14f8:	01d997cd 	bicseq	r9, r9, sp, asr #15
    14fc:	fb6d89bc 	blx	1b63bf6 <memset+0x1b5e9e6>
    1500:	0c310f63 	ldceq	15, cr0, [r1], #-396	; 0xfffffe74
    1504:	06fb3536 			; <UNDEFINED> instruction: 0x06fb3536
    1508:	395b2e56 	ldmdbcc	fp, {r1, r2, r4, r6, r9, sl, fp, sp}^
    150c:	aeaf31d7 	mcrge	1, 5, r3, cr15, cr7, {6}
    1510:	7abe3724 	bvc	fef8f1a8 <memset+0xfef89f98>
    1514:	b110274b 	tstlt	r0, fp, asr #14
    1518:	4fca7d69 	svcmi	0x00ca7d69
    151c:	e622c53d 			; <UNDEFINED> instruction: 0xe622c53d
    1520:	fbd05db3 	blx	ff418bf6 <memset+0xff4139e6>
    1524:	ead3fe1c 	b	ff500d9c <memset+0xff4fbb8c>
    1528:	b9b0bdaa 	ldmiblt	r0!, {r1, r3, r5, r7, r8, sl, fp, ip, sp, pc}
    152c:	79a7c558 	stmibvc	r7!, {r3, r4, r6, r8, sl, lr, pc}
    1530:	2f713bc0 	svccs	0x00713bc0
    1534:	d7ba2245 	ldrle	r2, [sl, r5, asr #4]!
    1538:	2cc35ce1 	stclcs	12, cr5, [r3], {225}	; 0xe1
    153c:	561cca95 			; <UNDEFINED> instruction: 0x561cca95
    1540:	e6be7ec8 	ldrt	r7, [lr], r8, asr #29
    1544:	0760af30 			; <UNDEFINED> instruction: 0x0760af30
    1548:	daecc35c 	ble	ffb322c0 <memset+0xffb2d0b0>
    154c:	4f3bb3f8 	svcmi	0x003bb3f8
    1550:	75225b06 	strvc	r5, [r2, #-2822]!	; 0xfffff4fa
    1554:	2cbdaa12 	vpopcs	{s20-s37}
    1558:	5732007f 			; <UNDEFINED> instruction: 0x5732007f
    155c:	af5ce94b 	svcge	0x005ce94b
    1560:	b1ee45e6 	mvnlt	r4, r6, ror #11
    1564:	8215dcf3 	andshi	sp, r5, #62208	; 0xf300
    1568:	2a786e11 	bcs	1e1cdb4 <memset+0x1e17ba4>
    156c:	c795b699 			; <UNDEFINED> instruction: 0xc795b699
    1570:	4559c1b7 	ldrbmi	ip, [r9, #-439]	; 0xfffffe49
    1574:	2a3f8346 	bcs	fe2294 <memset+0xfdd084>
    1578:	e0fca761 	rscs	sl, ip, r1, ror #14
    157c:	7abdd77d 	bvc	fef77378 <memset+0xfef72168>
    1580:	4fbde1bc 	svcmi	0x00bde1bc
    1584:	9f63fef0 	svcls	0x0063fef0
    1588:	e18b9dd9 	ldrd	r9, [fp, r9]
    158c:	f1dc8d9d 			; <UNDEFINED> instruction: 0xf1dc8d9d
    1590:	5b905e74 	blpl	fe418f68 <memset+0xfe413d58>
    1594:	92285c05 	eorls	r5, r8, #1280	; 0x500
    1598:	0b80a73f 	bleq	fe02b29c <memset+0xfe02608c>
    159c:	2360e351 	cmncs	r0, #1140850689	; 0x44000001
    15a0:	d75842dc 	smmlsle	r8, ip, r2, r4
    15a4:	32287853 	eorcc	r7, r8, #5439488	; 0x530000
    15a8:	2a1f4318 	bcs	7d2210 <memset+0x7cd000>
    15ac:	df716e92 	svcle	0x00716e92
    15b0:	f7d65832 			; <UNDEFINED> instruction: 0xf7d65832
    15b4:	1b5458f4 	blne	151798c <memset+0x151277c>
    15b8:	0801e0f5 	stmdaeq	r1, {r0, r2, r4, r5, r6, r7, sp, lr, pc}
    15bc:	46ac89f3 			; <UNDEFINED> instruction: 0x46ac89f3
    15c0:	fe45c7ca 	cdp2	7, 4, cr12, cr5, cr10, {6}
    15c4:	910e7e24 	tstls	lr, r4, lsr #28
    15c8:	e05faf1a 	subs	sl, pc, sl, lsl pc	; <UNPREDICTABLE>
    15cc:	70e3e082 	rscvc	lr, r3, r2, lsl #1
    15d0:	b1aa131c 			; <UNDEFINED> instruction: 0xb1aa131c
    15d4:	c94635a0 	stmdbgt	r6, {r5, r7, r8, sl, ip, sp}^
    15d8:	e64b6e25 	strb	r6, [fp], -r5, lsr #28
    15dc:	8c05e929 			; <UNDEFINED> instruction: 0x8c05e929
    15e0:	02b1ec55 	adcseq	lr, r1, #21760	; 0x5500
    15e4:	1ec53ef2 	mcrne	14, 6, r3, cr5, cr2, {7}
    15e8:	879e4087 	ldrhi	r4, [lr, r7, lsl #1]
    15ec:	799a031b 	ldmibvc	sl, {r0, r1, r3, r4, r8, r9}
    15f0:	15093150 	strne	r3, [r9, #-336]	; 0xfffffeb0
    15f4:	416e44bc 	strhmi	r4, [lr, #-76]!	; 0xffffffb4
    15f8:	e5dd4df5 	ldrb	r4, [sp, #3573]	; 0xdf5
    15fc:	8fac244d 	svchi	0x00ac244d
    1600:	c3e84c7e 	mvngt	r4, #32256	; 0x7e00
    1604:	ccbe3a80 	vldmiagt	lr!, {s6-s133}
    1608:	7cb7cb1f 	fldmiaxvc	r7!, {d12-d26}	;@ Deprecated
    160c:	7e126e84 	cdpvc	14, 1, cr6, cr2, cr4, {4}
    1610:	b2e463ce 	rsclt	r6, r4, #939524099	; 0x38000003
    1614:	cfcb2048 	svcgt	0x00cb2048
    1618:	2ab87ba7 	bcs	fee204bc <memset+0xfee1b2ac>
    161c:	3b2ee4c8 	blcc	bba944 <memset+0xbb5734>
    1620:	cdf0b074 	ldclgt	0, cr11, [r0, #464]!	; 0x1d0
    1624:	9bb0bb79 	blls	fec30410 <memset+0xfec2b200>
    1628:	b0f96e31 	rscslt	r6, r9, r1, lsr lr
    162c:	39bf34b7 	ldmibcc	pc!, {r0, r1, r2, r4, r5, r7, sl, ip, sp}	; <UNPREDICTABLE>
    1630:	175a63db 	smmlsne	sl, fp, r3, r6
    1634:	992ee1be 	stmdbls	lr!, {r1, r2, r3, r4, r5, r7, r8, sp, lr, pc}
    1638:	c6a8ebc5 	strtgt	lr, [r8], r5, asr #23
    163c:	a4710902 	ldrbtge	r0, [r1], #-2306	; 0xfffff6fe
    1640:	524235e6 	subpl	r3, r2, #964689920	; 0x39800000
    1644:	c4e55a32 	strbtgt	r5, [r5], #2610	; 0xa32
    1648:	c1de8c51 	bicsgt	r8, lr, r1, asr ip
    164c:	b55e3bee 	ldrblt	r3, [lr, #-3054]	; 0xfffff412
    1650:	3bcf0126 	blcc	ff3c1af0 <memset+0xff3bc8e0>
    1654:	47de27e2 	ldrbmi	r2, [lr, r2, ror #15]
    1658:	b7b6a9d1 	sbfxlt	sl, r1, #19, #23
    165c:	56a9bfe4 	strtpl	fp, [r9], r4, ror #31
    1660:	4e03309e 	mcrmi	0, 0, r3, cr3, cr14, {4}
    1664:	edbe6b65 			; <UNDEFINED> instruction: 0xedbe6b65
    1668:	c470496d 	ldrbtgt	r4, [r0], #-2413	; 0xfffff693
    166c:	0690cb1b 			; <UNDEFINED> instruction: 0x0690cb1b
    1670:	4b539127 	blmi	14e5b14 <memset+0x14e0904>
    1674:	c1615314 	cmngt	r1, r4, lsl r3
    1678:	1f87620a 	svcne	0x0087620a
    167c:	f9d52672 			; <UNDEFINED> instruction: 0xf9d52672
    1680:	0bc0f1b1 	bleq	ff03dd4c <memset+0xff038b3c>
    1684:	432eeecf 			; <UNDEFINED> instruction: 0x432eeecf
    1688:	544ce782 	strbpl	lr, [ip], #-1922	; 0xfffff87e
    168c:	3dcf65b1 	cfstr64cc	mvdx6, [pc, #708]	; 1958 <data_balance_config_+0x183c>
    1690:	b706381a 	smladlt	r6, sl, r8, r3
    1694:	42f30e0b 	rscsmi	r0, r3, #11, 28	; 0xb0
    1698:	728f7c5b 	addvc	r7, pc, #23296	; 0x5b00
    169c:	571a32ec 	ldrpl	r3, [sl, -ip, ror #5]
    16a0:	81c89e79 	bichi	r9, r8, r9, ror lr
    16a4:	498ca2fc 	stmibmi	ip, {r2, r3, r4, r5, r6, r7, r9, sp, pc}
    16a8:	13c2e1c5 	bicne	lr, r2, #1073741873	; 0x40000031
    16ac:	8a524b73 	bhi	1494480 <memset+0x148f270>
    16b0:	3570b275 	ldrbcc	fp, [r0, #-629]!	; 0xfffffd8b
    16b4:	867abe6c 	ldrbthi	fp, [sl], -ip, ror #28
    16b8:	ea494b16 	b	1254318 <memset+0x124f108>
    16bc:	c23023ab 	eorsgt	r2, r0, #-1409286142	; 0xac000002
    16c0:	06199593 			; <UNDEFINED> instruction: 0x06199593
    16c4:	3a009bb4 	bcc	2859c <memset+0x2338c>
    16c8:	53cb05dd 	bicpl	r0, fp, #926941184	; 0x37400000
    16cc:	3145dbcc 	smlalbtcc	sp, r5, ip, fp
    16d0:	2fcaa3c4 	svccs	0x00caa3c4
    16d4:	2bc3fd22 	blcs	ff100b64 <memset+0xff0fb954>
    16d8:	452037a4 	strmi	r3, [r0, #-1956]!	; 0xfffff85c
    16dc:	800f3e1e 	andhi	r3, pc, lr, lsl lr	; <UNPREDICTABLE>
    16e0:	ba4583ce 	blt	1162620 <memset+0x115d410>
    16e4:	0318be9d 	tsteq	r8, #2512	; 0x9d0
    16e8:	76cfa94b 	strbvc	sl, [pc], fp, asr #18
    16ec:	fd5e6900 	ldc2l	9, cr6, [lr, #-0]	; <UNPREDICTABLE>
    16f0:	508ae790 	umullpl	lr, sl, r0, r7
    16f4:	9db86235 	lfmls	f6, 4, [r8, #212]!	; 0xd4
    16f8:	64cdba7a 	strbvs	fp, [sp], #2682	; 0xa7a
    16fc:	f671e5fd 			; <UNDEFINED> instruction: 0xf671e5fd
    1700:	a309146a 	movwge	r1, #37994	; 0x946a
    1704:	cb51a938 	blgt	146bbec <memset+0x14669dc>
    1708:	344ac348 	strbcc	ip, [sl], #-840	; 0xfffffcb8
    170c:	acf58417 	cfldrdge	mvd8, [r5], #92	; 0x5c
    1710:	b990a990 	ldmiblt	r0, {r4, r7, r8, fp, sp, pc}
    1714:	a3eff307 	mvnge	pc, #469762048	; 0x1c000000
    1718:	1e464a79 			; <UNDEFINED> instruction: 0x1e464a79
    171c:	0761c039 			; <UNDEFINED> instruction: 0x0761c039
    1720:	36b02cba 			; <UNDEFINED> instruction: 0x36b02cba
    1724:	d70b0e0f 	strle	r0, [fp, -pc, lsl #28]
    1728:	0e1d08b2 	mrceq	8, 0, r0, cr13, cr2, {5}
    172c:	bf4300e9 	svclt	0x004300e9
    1730:	39bab916 	ldmibcc	sl!, {r1, r2, r4, r8, fp, ip, sp, pc}
    1734:	a5ca4116 	strbge	r4, [sl, #278]	; 0x116
    1738:	5e765b73 	vmovpl.s8	r5, d6[7]
    173c:	e384363c 	orr	r3, r4, #60, 12	; 0x3c00000
    1740:	33c71811 	biccc	r1, r7, #1114112	; 0x110000
    1744:	c023703b 	eorgt	r7, r3, fp, lsr r0
    1748:	6a5a53b9 	bvs	1696634 <memset+0x1691424>
    174c:	9aa6abad 	bls	fe9ac608 <memset+0xfe9a73f8>
    1750:	b3632fea 	cmnlt	r3, #936	; 0x3a8
    1754:	3f64e392 	svccc	0x0064e392
    1758:	f2b58f0a 			; <UNDEFINED> instruction: 0xf2b58f0a
    175c:	13eaee8d 	mvnne	lr, #2256	; 0x8d0
    1760:	4b76fe4f 	blmi	1dc10a4 <memset+0x1dbbe94>
    1764:	58d76bdd 	ldmpl	r7, {r0, r2, r3, r4, r6, r7, r8, r9, fp, sp, lr}^
    1768:	e0f2e509 	rscs	lr, r2, r9, lsl #10
    176c:	da198737 	ble	663450 <memset+0x65e240>
    1770:	5c2836c4 	stcpl	6, cr3, [r8], #-784	; 0xfffffcf0
    1774:	9beda377 	blls	ffb6a558 <memset+0xffb65348>
    1778:	45947913 	ldrmi	r7, [r4, #2323]	; 0x913
    177c:	cfa2351e 	svcgt	0x00a2351e
    1780:	8a7d1a70 	bhi	1f48148 <memset+0x1f42f38>
    1784:	e446c3e8 	strb	ip, [r6], #-1000	; 0xfffffc18
    1788:	ff785061 			; <UNDEFINED> instruction: 0xff785061
    178c:	69835447 	stmibvs	r3, {r0, r1, r2, r6, sl, ip, lr}
    1790:	2f2f0edb 	svccs	0x002f0edb
    1794:	a2d4a326 	sbcsge	sl, r4, #-1744830464	; 0x98000000
    1798:	007a8664 	rsbseq	r8, sl, r4, ror #12
    179c:	d8c1c7ef 	stmiale	r1, {r0, r1, r2, r3, r5, r6, r7, r8, r9, sl, lr, pc}^
    17a0:	9c66f8c8 	stclls	8, cr15, [r6], #-800	; 0xfffffce0
    17a4:	1ab7c607 	bne	fedf2fc8 <memset+0xfededdb8>
    17a8:	6f8b3f81 	svcvs	0x008b3f81
    17ac:	35418dd5 	strbcc	r8, [r1, #-3541]	; 0xfffff22b
    17b0:	e134f5b1 	teq	r4, r1	; <illegal shifter operand>	; <UNPREDICTABLE>
    17b4:	6a5414cc 	bvs	1506aec <memset+0x15018dc>
    17b8:	a109cddb 	ldrdge	ip, [r9, -fp]
    17bc:	65c8b72d 	strbvs	fp, [r8, #1837]	; 0x72d
    17c0:	c8546f92 	ldmdagt	r4, {r1, r4, r7, r8, r9, sl, fp, sp, lr}^
    17c4:	544c3c78 	strbpl	r3, [ip], #-3192	; 0xfffff388
    17c8:	30e6eb1b 	rsccc	lr, r6, fp, lsl fp
    17cc:	4830e8a5 	ldmdami	r0!, {r0, r2, r5, r7, fp, sp, lr, pc}
    17d0:	203c32ba 	ldrhtcs	r3, [ip], -sl
    17d4:	c157193f 	cmpgt	r7, pc, lsr r9
    17d8:	c1e63178 	mvngt	r3, r8, ror r1
    17dc:	3ca6e9dd 			; <UNDEFINED> instruction: 0x3ca6e9dd
    17e0:	b85c9467 	ldmdalt	ip, {r0, r1, r2, r5, r6, sl, ip, pc}^
    17e4:	429fcf80 	addsmi	ip, pc, #128, 30	; 0x200
    17e8:	8bb7dfb8 	blhi	fedf96d0 <memset+0xfedf44c0>
    17ec:	b539c279 	ldrlt	ip, [r9, #-633]!	; 0xfffffd87
    17f0:	60512c45 	subsvs	r2, r1, r5, asr #24
    17f4:	62e29f7c 	rscvs	r9, r2, #124, 30	; 0x1f0
    17f8:	52fdb420 	rscspl	fp, sp, #32, 8	; 0x20000000
    17fc:	66c4fbe3 	strbvs	pc, [r4], r3, ror #23	; <UNPREDICTABLE>
    1800:	cc85cd33 	stcgt	13, cr12, [r5], {51}	; 0x33
    1804:	93321734 	teqls	r2, #52, 14	; 0xd00000
    1808:	e452e42f 	ldrb	lr, [r2], #-1071	; 0xfffffbd1
    180c:	84f38a42 	ldrbthi	r8, [r3], #2626	; 0xa42
    1810:	42548f1f 	subsmi	r8, r4, #31, 30	; 0x7c
    1814:	b9e07fb1 	stmiblt	r0!, {r0, r4, r5, r7, r8, r9, sl, fp, ip, sp, lr}^
    1818:	32eebde4 	rsccc	fp, lr, #228, 26	; 0x3900
    181c:	09528fb4 	ldmdbeq	r2, {r2, r4, r5, r7, r8, r9, sl, fp, pc}^
    1820:	28e64069 	stmiacs	r6!, {r0, r3, r5, r6, lr}^
    1824:	28f6cb41 	ldmcs	r6!, {r0, r6, r8, r9, fp, lr, pc}^
    1828:	20f826be 	ldrhtcs	r2, [r8], #110	; 0x6e
    182c:	f7013fc6 			; <UNDEFINED> instruction: 0xf7013fc6
    1830:	188e066d 	stmne	lr, {r0, r2, r3, r5, r6, r9, sl}
    1834:	9b6f9a39 	blls	1be8120 <memset+0x1be2f10>
    1838:	be12c5d4 	mrclt	5, 0, ip, cr2, cr4, {6}
    183c:	b8bca249 	ldmlt	ip!, {r0, r3, r6, r9, sp, pc}
    1840:	d8c92a75 	stmiale	r9, {r0, r2, r4, r5, r6, r9, fp, sp}^
    1844:	96ab86ab 	strtls	r8, [fp], fp, lsr #13
    1848:	4abc6d51 	bmi	fef1cd94 <memset+0xfef17b84>
    184c:	ce1f06bc 	mrcgt	6, 0, r0, cr15, cr12, {5}
    1850:	cb2c46a8 	blgt	b132f8 <memset+0xb0e0e8>
    1854:	de52cd15 	mrcle	13, 2, ip, cr2, cr5, {0}
    1858:	225b62c2 	subscs	r6, fp, #536870924	; 0x2000000c
    185c:	4ca9636f 	stcmi	3, cr6, [r9], #444	; 0x1bc
    1860:	3749f477 	smlsldxcc	pc, r9, r7, r4	; <UNPREDICTABLE>
    1864:	494778eb 	stmdbmi	r7, {r0, r1, r3, r5, r6, r7, fp, ip, sp, lr}^
    1868:	8da4d4ad 	cfstrshi	mvf13, [r4, #692]!	; 0x2b4
    186c:	bac3f017 	blt	ff0fd8d0 <memset+0xff0f86c0>
    1870:	b8b7d1b3 	ldmlt	r7!, {r0, r1, r4, r5, r7, r8, ip, lr, pc}
    1874:	1a2c6d52 	bne	b1cdc4 <memset+0xb17bb4>
    1878:	292c9af5 	stmdbcs	ip!, {r0, r2, r4, r5, r6, r7, r9, fp, ip, pc}
    187c:	e8fbc516 	ldm	fp!, {r1, r2, r4, r8, sl, lr, pc}^
    1880:	b20914ea 	andlt	r1, r9, #-369098752	; 0xea000000
    1884:	23dde99b 	bicscs	lr, sp, #2539520	; 0x26c000
    1888:	3d397d6f 	ldccc	13, cr7, [r9, #-444]!	; 0xfffffe44
    188c:	1b809271 	blne	fe026258 <memset+0xfe021048>
    1890:	596bd773 	stmdbpl	fp!, {r0, r1, r4, r5, r6, r8, r9, sl, ip, lr, pc}^
    1894:	3a3522e3 	bcc	d4a428 <memset+0xd45218>
    1898:	16d1c726 	ldrbne	ip, [r1], r6, lsr #14
    189c:	9040a5d9 	ldrdls	sl, [r0], #-89	; 0xffffffa7
    18a0:	d276922d 	rsbsle	r9, r6, #-805306366	; 0xd0000002
    18a4:	b4d88e10 	ldrblt	r8, [r8], #3600	; 0xe10
    18a8:	c326f5b8 	msrgt	CPSR_sx, #184, 10	; 0x2e000000
    18ac:	b144ec70 	hvclt	20160	; 0x4ec0
    18b0:	46e92ff8 			; <UNDEFINED> instruction: 0x46e92ff8
    18b4:	d0a26168 	adcle	r6, r2, r8, ror #2
    18b8:	588ce7b6 	stmpl	ip, {r1, r2, r4, r5, r7, r8, r9, sl, sp, lr, pc}
    18bc:	17214d6d 	strne	r4, [r1, -sp, ror #26]!
    18c0:	4715a0cb 	ldrmi	sl, [r5, -fp, asr #1]
    18c4:	c2c4a25b 	sbcgt	sl, r4, #-1342177275	; 0xb0000005
    18c8:	86294a54 			; <UNDEFINED> instruction: 0x86294a54
    18cc:	6892d516 	ldmvs	r2, {r1, r2, r4, r8, sl, ip, lr, pc}
    18d0:	496abcad 	stmdbmi	sl!, {r0, r2, r3, r5, r7, sl, fp, ip, sp, pc}^
    18d4:	76b93ed5 	ssatvc	r3, #26, r5, asr #29
    18d8:	96ae00e0 	strtls	r0, [lr], r0, ror #1
    18dc:	43c234ce 	bicmi	r3, r2, #-838860800	; 0xce000000
    18e0:	3f1c166b 	svccc	0x001c166b
    18e4:	9fa1a7c6 	svcls	0x00a1a7c6
    18e8:	821405a8 	andshi	r0, r4, #168, 10	; 0x2a000000
    18ec:	d0e2ea6f 	rscle	lr, r2, pc, ror #20
    18f0:	8fd83dba 	svchi	0x00d83dba
    18f4:	934ac338 	movtls	ip, #41784	; 0xa338
    18f8:	380cd208 	stmdacc	ip, {r3, r9, ip, lr, pc}
    18fc:	c50f968c 	strgt	r9, [pc, #-1676]	; 1278 <data_balance_config_+0x115c>
    1900:	063658f7 			; <UNDEFINED> instruction: 0x063658f7
    1904:	6c1c8437 	cfldrsvs	mvf8, [ip], {55}	; 0x37
    1908:	9deef0fc 	stclls	0, cr15, [lr, #1008]!	; 0x3f0
    190c:	ef779d47 	svc	0x00779d47
    1910:	b960da6e 	stmdblt	r0!, {r1, r2, r3, r5, r6, r9, fp, ip, lr, pc}^
    1914:	d249238b 	suble	r2, r9, #738197506	; 0x2c000002
    1918:	bb71cb0b 	bllt	1c7454c <memset+0x1c6f33c>
    191c:	8528222c 	strhi	r2, [r8, #-556]!	; 0xfffffdd4
    1920:	65254b14 	strvs	r4, [r5, #-2836]!	; 0xfffff4ec
    1924:	69e2bba4 	stmibvs	r2!, {r2, r5, r7, r8, r9, fp, ip, sp, pc}^
    1928:	13a64bba 			; <UNDEFINED> instruction: 0x13a64bba
    192c:	c9895233 	stmibgt	r9, {r0, r1, r4, r5, r9, ip, lr}
    1930:	33a97817 			; <UNDEFINED> instruction: 0x33a97817
    1934:	38c0748b 	stmiacc	r0, {r0, r1, r3, r7, sl, ip, sp, lr}^
    1938:	5a47d34d 	bpl	11f6674 <memset+0x11f1464>
    193c:	3705dbb7 			; <UNDEFINED> instruction: 0x3705dbb7
    1940:	37d4ddad 	ldrbcc	sp, [r4, sp, lsr #27]
    1944:	79cef624 	stmibvc	lr, {r2, r5, r9, sl, ip, sp, lr, pc}^
    1948:	38485ee9 	stmdacc	r8, {r0, r3, r5, r6, r7, r9, sl, fp, ip, lr}^
    194c:	95bcd368 	ldrls	sp, [ip, #872]!	; 0x368
    1950:	eea77e38 	mcr	14, 5, r7, cr7, cr8, {1}
    1954:	d4f3c51b 	ldrbtle	ip, [r3], #1307	; 0x51b
    1958:	707ad58f 	rsbsvc	sp, sl, pc, lsl #11
    195c:	042f0ba8 	strteq	r0, [pc], #-2984	; 1964 <data_balance_config_+0x1848>
    1960:	9a6681e6 	bls	19a2100 <memset+0x199cef0>
    1964:	780f8b6e 	stmdavc	pc, {r1, r2, r3, r5, r6, r8, r9, fp, pc}	; <UNPREDICTABLE>
    1968:	3062ec8c 	rsbcc	lr, r2, ip, lsl #25
    196c:	45968d45 	ldrmi	r8, [r6, #3397]	; 0xd45
    1970:	af18dfeb 	svcge	0x0018dfeb
    1974:	d836d2e4 	ldmdale	r6!, {r2, r5, r6, r7, r9, ip, lr, pc}
    1978:	c6bff190 	ssatgt	pc, #32, r0, lsl #3	; <UNPREDICTABLE>
    197c:	2bdc8f93 	blcs	ff7257d0 <memset+0xff7205c0>
    1980:	8c789e30 	ldclhi	14, cr9, [r8], #-192	; 0xffffff40
    1984:	cd28e020 	stcgt	0, cr14, [r8, #-128]!	; 0xffffff80
    1988:	04b0890b 	ldrteq	r8, [r0], #2315	; 0x90b
    198c:	5249d11f 	subpl	sp, r9, #-1073741817	; 0xc0000007
    1990:	85cf4339 	strbhi	r4, [pc, #825]	; 1cd1 <impure_data+0x199>
    1994:	4e88f8a5 	cdpmi	8, 8, cr15, cr8, cr5, {5}
    1998:	dedc72c2 	cdple	2, 13, cr7, cr12, cr2, {6}
    199c:	4c92c231 	lfmmi	f4, 1, [r2], {49}	; 0x31
    19a0:	c51f59ad 	ldrgt	r5, [pc, #-2477]	; ffb <data_balance_config_+0xedf>
    19a4:	8f4d3ff7 	svchi	0x004d3ff7
    19a8:	7d235b35 	fstmdbxvc	r3!, {d5-d30}	;@ Deprecated
    19ac:	a47b6107 	ldrbtge	r6, [fp], #-263	; 0xfffffef9
    19b0:	17db9f97 	bfine	r9, r7, (invalid: 31:27)
    19b4:	27a29fa9 	strcs	r9, [r2, r9, lsr #31]!
    19b8:	4b847232 	blmi	fe11e288 <memset+0xfe119078>
    19bc:	76dea9f9 			; <UNDEFINED> instruction: 0x76dea9f9
    19c0:	b190c194 			; <UNDEFINED> instruction: 0xb190c194
    19c4:	94318adb 	ldrtls	r8, [r1], #-2779	; 0xfffff525
    19c8:	d18aefa9 	orrle	lr, sl, r9, lsr #31
    19cc:	c2e7a990 	rscgt	sl, r7, #144, 18	; 0x240000
    19d0:	6dd6ca58 	vldrvs	s25, [r6, #352]	; 0x160
    19d4:	ea653c61 	b	1950b60 <memset+0x194b950>
    19d8:	3dc09997 	vstrcc.16	s19, [r0, #302]	; 0x12e	; <UNPREDICTABLE>
    19dc:	3cca2bb0 	vstmiacc	sl, {d18-<overflow reg d41>}
    19e0:	5fd33784 	svcpl	0x00d33784
    19e4:	cae4d363 	bgt	ff936778 <memset+0xff931568>
    19e8:	dbeb29d0 	blle	ffacc130 <memset+0xffac6f20>
    19ec:	32c9348c 	sbccc	r3, r9, #140, 8	; 0x8c000000
    19f0:	830d4bf7 	movwhi	r4, #56311	; 0xdbf7
    19f4:	432d9335 			; <UNDEFINED> instruction: 0x432d9335
    19f8:	ee13658f 	cdp	5, 1, cr6, cr3, cr15, {4}
    19fc:	4984dd51 	stmibmi	r4, {r0, r4, r6, r8, sl, fp, ip, lr, pc}
    1a00:	e047cc57 	sub	ip, r7, r7, asr ip
    1a04:	73334c56 	teqvc	r3, #22016	; 0x5600
    1a08:	9c2f7fa0 	stcls	15, cr7, [pc], #-640	; 1790 <data_balance_config_+0x1674>
    1a0c:	d0faa6dd 	ldrsbtle	sl, [sl], #109	; 0x6d
    1a10:	d3a1cec7 			; <UNDEFINED> instruction: 0xd3a1cec7
    1a14:	539f5d77 	orrspl	r5, pc, #7616	; 0x1dc0
    1a18:	0d0d1ea7 	stceq	14, cr1, [sp, #-668]	; 0xfffffd64
    1a1c:	b97c0340 	ldmdblt	ip!, {r6, r8, r9}^
    1a20:	d6a47dd3 	ssatle	r7, #5, r3, asr #27
    1a24:	2fa9e5e6 	svccs	0x00a9e5e6
    1a28:	469b6172 			; <UNDEFINED> instruction: 0x469b6172
    1a2c:	cdac4bca 			; <UNDEFINED> instruction: 0xcdac4bca
    1a30:	9876d385 	ldmdals	r6!, {r0, r2, r7, r8, r9, ip, lr, pc}^
    1a34:	320b8dcf 	andcc	r8, fp, #13248	; 0x33c0
    1a38:	7924e627 	stmdbvc	r4!, {r0, r1, r2, r5, r9, sl, sp, lr, pc}
    1a3c:	53925572 	orrspl	r5, r2, #478150656	; 0x1c800000
    1a40:	24ec5914 	strbtcs	r5, [ip], #2324	; 0x914
    1a44:	d57a67d3 	ldrble	r6, [sl, #-2003]!	; 0xfffff82d
    1a48:	affa94fb 	svcge	0x00fa94fb
    1a4c:	19fc0cd5 	ldmibne	ip!, {r0, r2, r4, r6, r7, sl, fp}^
    1a50:	7370cc69 	cmnvc	r0, #26880	; 0x6900
    1a54:	ae422664 	cdpge	6, 4, cr2, cr2, cr4, {3}
    1a58:	7632f9fa 			; <UNDEFINED> instruction: 0x7632f9fa
    1a5c:	28b900c8 	ldmcs	r9!, {r3, r6, r7}
    1a60:	557a63b7 	ldrbpl	r6, [sl, #-951]!	; 0xfffffc49
    1a64:	5f993ac4 	svcpl	0x00993ac4
    1a68:	2bd7136c 	blcs	ff5c6820 <memset+0xff5c1610>
    1a6c:	e878f71e 	ldmda	r8!, {r1, r2, r3, r4, r8, r9, sl, ip, sp, lr, pc}^
    1a70:	fe24cc5b 	mcr2	12, 1, ip, cr4, cr11, {2}
    1a74:	385b4788 	ldmdacc	fp, {r3, r7, r8, r9, sl, lr}^
    1a78:	183f5339 	ldmdane	pc!, {r0, r3, r4, r5, r8, r9, ip, lr}	; <UNPREDICTABLE>
    1a7c:	5bf840e6 	blpl	ffe11e1c <memset+0xffe0cc0c>
    1a80:	67de65cf 	ldrbvs	r6, [lr, pc, asr #11]
    1a84:	73c47f14 	bicvc	r7, r4, #20, 30	; 0x50
    1a88:	2b9edb99 	blcs	fe7b88f4 <memset+0xfe7b36e4>
    1a8c:	8e7a71e7 	rpwhi<illegal precision>z	f7, f2, f7
    1a90:	061cf01e 			; <UNDEFINED> instruction: 0x061cf01e
    1a94:	c40cd8a9 	strgt	sp, [ip], #-2217	; 0xfffff757
    1a98:	f88a9ecf 			; <UNDEFINED> instruction: 0xf88a9ecf
    1a9c:	69214b2b 	stmdbvs	r1!, {r0, r1, r3, r5, r8, r9, fp, lr}
    1aa0:	289657c5 	ldmcs	r6, {r0, r2, r6, r7, r8, r9, sl, ip, lr}
    1aa4:	8b1276d2 	blhi	49f5f4 <memset+0x49a3e4>
    1aa8:	912ed915 			; <UNDEFINED> instruction: 0x912ed915
    1aac:	787c8fb6 	ldmdavc	ip!, {r1, r2, r4, r5, r7, r8, r9, sl, fp, pc}^
    1ab0:	f59fd4b1 			; <UNDEFINED> instruction: 0xf59fd4b1
    1ab4:	6252d3e1 	subsvs	sp, r2, #-2080374781	; 0x84000003
    1ab8:	fd255573 	stc2	5, cr5, [r5, #-460]!	; 0xfffffe34
    1abc:	0e15f18d 	mnfeqd	f7, #5.0
    1ac0:	c4a6e19a 	strtgt	lr, [r6], #410	; 0x19a
    1ac4:	e906520a 	stmdb	r6, {r1, r3, r9, ip, lr}
    1ac8:	b08facd3 	ldrdlt	sl, [pc], r3
    1acc:	a8f3e8b2 	ldmge	r3!, {r1, r4, r5, r7, fp, sp, lr, pc}^
    1ad0:	281162ae 	ldmdacs	r1, {r1, r2, r3, r5, r7, r9, sp, lr}
    1ad4:	2f2e3dc3 	svccs	0x002e3dc3
    1ad8:	b6eda50a 	strbtlt	sl, [sp], sl, lsl #10
    1adc:	cc5448be 	mrrcgt	8, 11, r4, r4, cr14	; <UNPREDICTABLE>
    1ae0:	5744bd70 	smlsldxpl	fp, r4, r0, sp
    1ae4:	36dd693e 			; <UNDEFINED> instruction: 0x36dd693e
    1ae8:	4bb21872 	blmi	fec87cb8 <memset+0xfec82aa8>
    1aec:	52fedee7 	rscspl	sp, lr, #3696	; 0xe70
    1af0:	d214d696 	andsle	sp, r4, #157286400	; 0x9600000
    1af4:	f7af9f6b 			; <UNDEFINED> instruction: 0xf7af9f6b
    1af8:	887ec999 	ldmdahi	lr!, {r0, r3, r4, r7, r8, fp, lr, pc}^
    1afc:	3d298f8a 	stccc	15, cr8, [r9, #-552]!	; 0xfffffdd8
    1b00:	44fae179 	ldrbtmi	lr, [sl], #377	; 0x179
    1b04:	5a96494a 	bpl	fe594034 <memset+0xfe58ee24>
    1b08:	e774c8d2 			; <UNDEFINED> instruction: 0xe774c8d2
    1b0c:	b849b534 	stmdalt	r9, {r2, r4, r5, r8, sl, ip, sp, pc}^
    1b10:	a99204b6 	ldmibge	r2, {r1, r2, r4, r5, r7, sl}
    1b14:	24497cc3 	strbcs	r7, [r9], #-3267	; 0xfffff33d
    1b18:	2dac33dd 	stccs	3, cr3, [ip, #884]!	; 0x374
    1b1c:	4a993c70 	bmi	fe650ce4 <memset+0xfe64bad4>
    1b20:	e86fef4a 	stmda	pc!, {r1, r3, r6, r8, r9, sl, fp, sp, lr, pc}^	; <UNPREDICTABLE>
    1b24:	91385e53 	teqls	r8, r3, asr lr
    1b28:	7461656b 	strbtvc	r6, [r1], #-1387	; 0xfffffa95
    1b2c:	7ffa2785 	svcvc	0x00fa2785
    1b30:	f456da61 			; <UNDEFINED> instruction: 0xf456da61

Disassembly of section .data._impure_ptr:

00001b34 <_impure_ptr>:
    1b34:	00001b38 	andeq	r1, r0, r8, lsr fp

Disassembly of section .data.impure_data:

00001b38 <impure_data>:
    1b38:	00000000 	andeq	r0, r0, r0
    1b3c:	00001e24 	andeq	r1, r0, r4, lsr #28
    1b40:	00001e8c 	andeq	r1, r0, ip, lsl #29
    1b44:	00001ef4 	strdeq	r1, [r0], -r4
	...
    1be0:	00000001 	andeq	r0, r0, r1
    1be4:	00000000 	andeq	r0, r0, r0
    1be8:	abcd330e 	blge	ff34e828 <memset+0xff349618>
    1bec:	e66d1234 			; <UNDEFINED> instruction: 0xe66d1234
    1bf0:	0005deec 	andeq	sp, r5, ip, ror #29
    1bf4:	0000000b 	andeq	r0, r0, fp
	...

Disassembly of section .got:

00001f60 <.got>:
    1f60:	0000011c 	andeq	r0, r0, ip, lsl r1

00001f64 <_GLOBAL_OFFSET_TABLE_>:
	...

Disassembly of section .text:

00001f70 <memcpy>:
    1f70:	4684      	mov	ip, r0
    1f72:	ea41 0300 	orr.w	r3, r1, r0
    1f76:	f013 0303 	ands.w	r3, r3, #3
    1f7a:	d16d      	bne.n	2058 <memcpy+0xe8>
    1f7c:	3a40      	subs	r2, #64	; 0x40
    1f7e:	d341      	bcc.n	2004 <memcpy+0x94>
    1f80:	f851 3b04 	ldr.w	r3, [r1], #4
    1f84:	f840 3b04 	str.w	r3, [r0], #4
    1f88:	f851 3b04 	ldr.w	r3, [r1], #4
    1f8c:	f840 3b04 	str.w	r3, [r0], #4
    1f90:	f851 3b04 	ldr.w	r3, [r1], #4
    1f94:	f840 3b04 	str.w	r3, [r0], #4
    1f98:	f851 3b04 	ldr.w	r3, [r1], #4
    1f9c:	f840 3b04 	str.w	r3, [r0], #4
    1fa0:	f851 3b04 	ldr.w	r3, [r1], #4
    1fa4:	f840 3b04 	str.w	r3, [r0], #4
    1fa8:	f851 3b04 	ldr.w	r3, [r1], #4
    1fac:	f840 3b04 	str.w	r3, [r0], #4
    1fb0:	f851 3b04 	ldr.w	r3, [r1], #4
    1fb4:	f840 3b04 	str.w	r3, [r0], #4
    1fb8:	f851 3b04 	ldr.w	r3, [r1], #4
    1fbc:	f840 3b04 	str.w	r3, [r0], #4
    1fc0:	f851 3b04 	ldr.w	r3, [r1], #4
    1fc4:	f840 3b04 	str.w	r3, [r0], #4
    1fc8:	f851 3b04 	ldr.w	r3, [r1], #4
    1fcc:	f840 3b04 	str.w	r3, [r0], #4
    1fd0:	f851 3b04 	ldr.w	r3, [r1], #4
    1fd4:	f840 3b04 	str.w	r3, [r0], #4
    1fd8:	f851 3b04 	ldr.w	r3, [r1], #4
    1fdc:	f840 3b04 	str.w	r3, [r0], #4
    1fe0:	f851 3b04 	ldr.w	r3, [r1], #4
    1fe4:	f840 3b04 	str.w	r3, [r0], #4
    1fe8:	f851 3b04 	ldr.w	r3, [r1], #4
    1fec:	f840 3b04 	str.w	r3, [r0], #4
    1ff0:	f851 3b04 	ldr.w	r3, [r1], #4
    1ff4:	f840 3b04 	str.w	r3, [r0], #4
    1ff8:	f851 3b04 	ldr.w	r3, [r1], #4
    1ffc:	f840 3b04 	str.w	r3, [r0], #4
    2000:	3a40      	subs	r2, #64	; 0x40
    2002:	d2bd      	bcs.n	1f80 <memcpy+0x10>
    2004:	3230      	adds	r2, #48	; 0x30
    2006:	d311      	bcc.n	202c <memcpy+0xbc>
    2008:	f851 3b04 	ldr.w	r3, [r1], #4
    200c:	f840 3b04 	str.w	r3, [r0], #4
    2010:	f851 3b04 	ldr.w	r3, [r1], #4
    2014:	f840 3b04 	str.w	r3, [r0], #4
    2018:	f851 3b04 	ldr.w	r3, [r1], #4
    201c:	f840 3b04 	str.w	r3, [r0], #4
    2020:	f851 3b04 	ldr.w	r3, [r1], #4
    2024:	f840 3b04 	str.w	r3, [r0], #4
    2028:	3a10      	subs	r2, #16
    202a:	d2ed      	bcs.n	2008 <memcpy+0x98>
    202c:	320c      	adds	r2, #12
    202e:	d305      	bcc.n	203c <memcpy+0xcc>
    2030:	f851 3b04 	ldr.w	r3, [r1], #4
    2034:	f840 3b04 	str.w	r3, [r0], #4
    2038:	3a04      	subs	r2, #4
    203a:	d2f9      	bcs.n	2030 <memcpy+0xc0>
    203c:	3204      	adds	r2, #4
    203e:	d008      	beq.n	2052 <memcpy+0xe2>
    2040:	07d2      	lsls	r2, r2, #31
    2042:	bf1c      	itt	ne
    2044:	f811 3b01 	ldrbne.w	r3, [r1], #1
    2048:	f800 3b01 	strbne.w	r3, [r0], #1
    204c:	d301      	bcc.n	2052 <memcpy+0xe2>
    204e:	880b      	ldrh	r3, [r1, #0]
    2050:	8003      	strh	r3, [r0, #0]
    2052:	4660      	mov	r0, ip
    2054:	4770      	bx	lr
    2056:	bf00      	nop
    2058:	2a08      	cmp	r2, #8
    205a:	d313      	bcc.n	2084 <memcpy+0x114>
    205c:	078b      	lsls	r3, r1, #30
    205e:	d08d      	beq.n	1f7c <memcpy+0xc>
    2060:	f010 0303 	ands.w	r3, r0, #3
    2064:	d08a      	beq.n	1f7c <memcpy+0xc>
    2066:	f1c3 0304 	rsb	r3, r3, #4
    206a:	1ad2      	subs	r2, r2, r3
    206c:	07db      	lsls	r3, r3, #31
    206e:	bf1c      	itt	ne
    2070:	f811 3b01 	ldrbne.w	r3, [r1], #1
    2074:	f800 3b01 	strbne.w	r3, [r0], #1
    2078:	d380      	bcc.n	1f7c <memcpy+0xc>
    207a:	f831 3b02 	ldrh.w	r3, [r1], #2
    207e:	f820 3b02 	strh.w	r3, [r0], #2
    2082:	e77b      	b.n	1f7c <memcpy+0xc>
    2084:	3a04      	subs	r2, #4
    2086:	d3d9      	bcc.n	203c <memcpy+0xcc>
    2088:	3a01      	subs	r2, #1
    208a:	f811 3b01 	ldrb.w	r3, [r1], #1
    208e:	f800 3b01 	strb.w	r3, [r0], #1
    2092:	d2f9      	bcs.n	2088 <memcpy+0x118>
    2094:	780b      	ldrb	r3, [r1, #0]
    2096:	7003      	strb	r3, [r0, #0]
    2098:	784b      	ldrb	r3, [r1, #1]
    209a:	7043      	strb	r3, [r0, #1]
    209c:	788b      	ldrb	r3, [r1, #2]
    209e:	7083      	strb	r3, [r0, #2]
    20a0:	4660      	mov	r0, ip
    20a2:	4770      	bx	lr
	...
    20b0:	20435545 	subcs	r5, r3, r5, asr #10
    20b4:	6d726554 	cfldr64vs	mvdx6, [r2, #-336]!	; 0xfffffeb0
    20b8:	74616e69 	strbtvc	r6, [r1], #-3689	; 0xfffff197
    20bc:	00006465 	andeq	r6, r0, r5, ror #8
    20c0:	616c6142 	cmnvs	ip, r2, asr #2
    20c4:	2065636e 	rsbcs	r6, r5, lr, ror #6
    20c8:	6e69614d 	powvsem	f6, f1, #5.0
    20cc:	6c614200 	sfmvs	f4, 2, [r1], #-0
    20d0:	65636e61 	strbvs	r6, [r3, #-3681]!	; 0xfffff19f
    20d4:	61655220 	cmnvs	r5, r0, lsr #4
    20d8:	6d69746c 	cfstrdvs	mvd7, [r9, #-432]!	; 0xfffffe50
    20dc:	61442065 	cmpvs	r4, r5, rrx
    20e0:	65006174 	strvs	r6, [r0, #-372]	; 0xfffffe8c
    20e4:	622d7478 	eorvs	r7, sp, #120, 8	; 0x78000000
    20e8:	6e616c61 	cdpvs	12, 6, cr6, cr1, cr1, {3}
    20ec:	642d6563 	strtvs	r6, [sp], #-1379	; 0xfffffa9d
    20f0:	00006762 	andeq	r6, r0, r2, ror #14
	...

00002100 <npio2_hw>:
    2100:	3fc90f00 	svccc	0x00c90f00
    2104:	40490f00 	submi	r0, r9, r0, lsl #30
    2108:	4096cb00 	addsmi	ip, r6, r0, lsl #22
    210c:	40c90f00 	sbcmi	r0, r9, r0, lsl #30
    2110:	40fb5300 	rscsmi	r5, fp, r0, lsl #6
    2114:	4116cb00 	tstmi	r6, r0, lsl #22
    2118:	412fed00 			; <UNDEFINED> instruction: 0x412fed00
    211c:	41490f00 	cmpmi	r9, r0, lsl #30
    2120:	41623100 	cmnmi	r2, r0, lsl #2
    2124:	417b5300 	cmnmi	fp, r0, lsl #6
    2128:	418a3a00 	orrmi	r3, sl, r0, lsl #20
    212c:	4196cb00 	orrsmi	ip, r6, r0, lsl #22
    2130:	41a35c00 			; <UNDEFINED> instruction: 0x41a35c00
    2134:	41afed00 			; <UNDEFINED> instruction: 0x41afed00
    2138:	41bc7e00 			; <UNDEFINED> instruction: 0x41bc7e00
    213c:	41c90f00 	bicmi	r0, r9, r0, lsl #30
    2140:	41d5a000 	bicsmi	sl, r5, r0
    2144:	41e23100 	mvnmi	r3, r0, lsl #2
    2148:	41eec200 	mvnmi	ip, r0, lsl #4
    214c:	41fb5300 	mvnsmi	r5, r0, lsl #6
    2150:	4203f200 	andmi	pc, r3, #0, 4
    2154:	420a3a00 	andmi	r3, sl, #0, 20
    2158:	42108300 	andsmi	r8, r0, #0, 6
    215c:	4216cb00 	andsmi	ip, r6, #0, 22
    2160:	421d1400 	andsmi	r1, sp, #0, 8
    2164:	42235c00 	eormi	r5, r3, #0, 24
    2168:	4229a500 	eormi	sl, r9, #0, 10
    216c:	422fed00 	eormi	lr, pc, #0, 26
    2170:	42363600 	eorsmi	r3, r6, #0, 12
    2174:	423c7e00 	eorsmi	r7, ip, #0, 28
    2178:	4242c700 	submi	ip, r2, #0, 14
    217c:	42490f00 	submi	r0, r9, #0, 30

00002180 <two_over_pi>:
    2180:	000000a2 	andeq	r0, r0, r2, lsr #1
    2184:	000000f9 	strdeq	r0, [r0], -r9
    2188:	00000083 	andeq	r0, r0, r3, lsl #1
    218c:	0000006e 	andeq	r0, r0, lr, rrx
    2190:	0000004e 	andeq	r0, r0, lr, asr #32
    2194:	00000044 	andeq	r0, r0, r4, asr #32
    2198:	00000015 	andeq	r0, r0, r5, lsl r0
    219c:	00000029 	andeq	r0, r0, r9, lsr #32
    21a0:	000000fc 	strdeq	r0, [r0], -ip
    21a4:	00000027 	andeq	r0, r0, r7, lsr #32
    21a8:	00000057 	andeq	r0, r0, r7, asr r0
    21ac:	000000d1 	ldrdeq	r0, [r0], -r1
    21b0:	000000f5 	strdeq	r0, [r0], -r5
    21b4:	00000034 	andeq	r0, r0, r4, lsr r0
    21b8:	000000dd 	ldrdeq	r0, [r0], -sp
    21bc:	000000c0 	andeq	r0, r0, r0, asr #1
    21c0:	000000db 	ldrdeq	r0, [r0], -fp
    21c4:	00000062 	andeq	r0, r0, r2, rrx
    21c8:	00000095 	muleq	r0, r5, r0
    21cc:	00000099 	muleq	r0, r9, r0
    21d0:	0000003c 	andeq	r0, r0, ip, lsr r0
    21d4:	00000043 	andeq	r0, r0, r3, asr #32
    21d8:	00000090 	muleq	r0, r0, r0
    21dc:	00000041 	andeq	r0, r0, r1, asr #32
    21e0:	000000fe 	strdeq	r0, [r0], -lr
    21e4:	00000051 	andeq	r0, r0, r1, asr r0
    21e8:	00000063 	andeq	r0, r0, r3, rrx
    21ec:	000000ab 	andeq	r0, r0, fp, lsr #1
    21f0:	000000de 	ldrdeq	r0, [r0], -lr
    21f4:	000000bb 	strheq	r0, [r0], -fp
    21f8:	000000c5 	andeq	r0, r0, r5, asr #1
    21fc:	00000061 	andeq	r0, r0, r1, rrx
    2200:	000000b7 	strheq	r0, [r0], -r7
    2204:	00000024 	andeq	r0, r0, r4, lsr #32
    2208:	0000006e 	andeq	r0, r0, lr, rrx
    220c:	0000003a 	andeq	r0, r0, sl, lsr r0
    2210:	00000042 	andeq	r0, r0, r2, asr #32
    2214:	0000004d 	andeq	r0, r0, sp, asr #32
    2218:	000000d2 	ldrdeq	r0, [r0], -r2
    221c:	000000e0 	andeq	r0, r0, r0, ror #1
    2220:	00000006 	andeq	r0, r0, r6
    2224:	00000049 	andeq	r0, r0, r9, asr #32
    2228:	0000002e 	andeq	r0, r0, lr, lsr #32
    222c:	000000ea 	andeq	r0, r0, sl, ror #1
    2230:	00000009 	andeq	r0, r0, r9
    2234:	000000d1 	ldrdeq	r0, [r0], -r1
    2238:	00000092 	muleq	r0, r2, r0
    223c:	0000001c 	andeq	r0, r0, ip, lsl r0
    2240:	000000fe 	strdeq	r0, [r0], -lr
    2244:	0000001d 	andeq	r0, r0, sp, lsl r0
    2248:	000000eb 	andeq	r0, r0, fp, ror #1
    224c:	0000001c 	andeq	r0, r0, ip, lsl r0
    2250:	000000b1 	strheq	r0, [r0], -r1
    2254:	00000029 	andeq	r0, r0, r9, lsr #32
    2258:	000000a7 	andeq	r0, r0, r7, lsr #1
    225c:	0000003e 	andeq	r0, r0, lr, lsr r0
    2260:	000000e8 	andeq	r0, r0, r8, ror #1
    2264:	00000082 	andeq	r0, r0, r2, lsl #1
    2268:	00000035 	andeq	r0, r0, r5, lsr r0
    226c:	000000f5 	strdeq	r0, [r0], -r5
    2270:	0000002e 	andeq	r0, r0, lr, lsr #32
    2274:	000000bb 	strheq	r0, [r0], -fp
    2278:	00000044 	andeq	r0, r0, r4, asr #32
    227c:	00000084 	andeq	r0, r0, r4, lsl #1
    2280:	000000e9 	andeq	r0, r0, r9, ror #1
    2284:	0000009c 	muleq	r0, ip, r0
    2288:	00000070 	andeq	r0, r0, r0, ror r0
    228c:	00000026 	andeq	r0, r0, r6, lsr #32
    2290:	000000b4 	strheq	r0, [r0], -r4
    2294:	0000005f 	andeq	r0, r0, pc, asr r0
    2298:	0000007e 	andeq	r0, r0, lr, ror r0
    229c:	00000041 	andeq	r0, r0, r1, asr #32
    22a0:	00000039 	andeq	r0, r0, r9, lsr r0
    22a4:	00000091 	muleq	r0, r1, r0
    22a8:	000000d6 	ldrdeq	r0, [r0], -r6
    22ac:	00000039 	andeq	r0, r0, r9, lsr r0
    22b0:	00000083 	andeq	r0, r0, r3, lsl #1
    22b4:	00000053 	andeq	r0, r0, r3, asr r0
    22b8:	00000039 	andeq	r0, r0, r9, lsr r0
    22bc:	000000f4 	strdeq	r0, [r0], -r4
    22c0:	0000009c 	muleq	r0, ip, r0
    22c4:	00000084 	andeq	r0, r0, r4, lsl #1
    22c8:	0000005f 	andeq	r0, r0, pc, asr r0
    22cc:	0000008b 	andeq	r0, r0, fp, lsl #1
    22d0:	000000bd 	strheq	r0, [r0], -sp
    22d4:	000000f9 	strdeq	r0, [r0], -r9
    22d8:	00000028 	andeq	r0, r0, r8, lsr #32
    22dc:	0000003b 	andeq	r0, r0, fp, lsr r0
    22e0:	0000001f 	andeq	r0, r0, pc, lsl r0
    22e4:	000000f8 	strdeq	r0, [r0], -r8
    22e8:	00000097 	muleq	r0, r7, r0
    22ec:	000000ff 	strdeq	r0, [r0], -pc	; <UNPREDICTABLE>
    22f0:	000000de 	ldrdeq	r0, [r0], -lr
    22f4:	00000005 	andeq	r0, r0, r5
    22f8:	00000098 	muleq	r0, r8, r0
    22fc:	0000000f 	andeq	r0, r0, pc
    2300:	000000ef 	andeq	r0, r0, pc, ror #1
    2304:	0000002f 	andeq	r0, r0, pc, lsr #32
    2308:	00000011 	andeq	r0, r0, r1, lsl r0
    230c:	0000008b 	andeq	r0, r0, fp, lsl #1
    2310:	0000005a 	andeq	r0, r0, sl, asr r0
    2314:	0000000a 	andeq	r0, r0, sl
    2318:	0000006d 	andeq	r0, r0, sp, rrx
    231c:	0000001f 	andeq	r0, r0, pc, lsl r0
    2320:	0000006d 	andeq	r0, r0, sp, rrx
    2324:	00000036 	andeq	r0, r0, r6, lsr r0
    2328:	0000007e 	andeq	r0, r0, lr, ror r0
    232c:	000000cf 	andeq	r0, r0, pc, asr #1
    2330:	00000027 	andeq	r0, r0, r7, lsr #32
    2334:	000000cb 	andeq	r0, r0, fp, asr #1
    2338:	00000009 	andeq	r0, r0, r9
    233c:	000000b7 	strheq	r0, [r0], -r7
    2340:	0000004f 	andeq	r0, r0, pc, asr #32
    2344:	00000046 	andeq	r0, r0, r6, asr #32
    2348:	0000003f 	andeq	r0, r0, pc, lsr r0
    234c:	00000066 	andeq	r0, r0, r6, rrx
    2350:	0000009e 	muleq	r0, lr, r0
    2354:	0000005f 	andeq	r0, r0, pc, asr r0
    2358:	000000ea 	andeq	r0, r0, sl, ror #1
    235c:	0000002d 	andeq	r0, r0, sp, lsr #32
    2360:	00000075 	andeq	r0, r0, r5, ror r0
    2364:	00000027 	andeq	r0, r0, r7, lsr #32
    2368:	000000ba 	strheq	r0, [r0], -sl
    236c:	000000c7 	andeq	r0, r0, r7, asr #1
    2370:	000000eb 	andeq	r0, r0, fp, ror #1
    2374:	000000e5 	andeq	r0, r0, r5, ror #1
    2378:	000000f1 	strdeq	r0, [r0], -r1
    237c:	0000007b 	andeq	r0, r0, fp, ror r0
    2380:	0000003d 	andeq	r0, r0, sp, lsr r0
    2384:	00000007 	andeq	r0, r0, r7
    2388:	00000039 	andeq	r0, r0, r9, lsr r0
    238c:	000000f7 	strdeq	r0, [r0], -r7
    2390:	0000008a 	andeq	r0, r0, sl, lsl #1
    2394:	00000052 	andeq	r0, r0, r2, asr r0
    2398:	00000092 	muleq	r0, r2, r0
    239c:	000000ea 	andeq	r0, r0, sl, ror #1
    23a0:	0000006b 	andeq	r0, r0, fp, rrx
    23a4:	000000fb 	strdeq	r0, [r0], -fp
    23a8:	0000005f 	andeq	r0, r0, pc, asr r0
    23ac:	000000b1 	strheq	r0, [r0], -r1
    23b0:	0000001f 	andeq	r0, r0, pc, lsl r0
    23b4:	0000008d 	andeq	r0, r0, sp, lsl #1
    23b8:	0000005d 	andeq	r0, r0, sp, asr r0
    23bc:	00000008 	andeq	r0, r0, r8
    23c0:	00000056 	andeq	r0, r0, r6, asr r0
    23c4:	00000003 	andeq	r0, r0, r3
    23c8:	00000030 	andeq	r0, r0, r0, lsr r0
    23cc:	00000046 	andeq	r0, r0, r6, asr #32
    23d0:	000000fc 	strdeq	r0, [r0], -ip
    23d4:	0000007b 	andeq	r0, r0, fp, ror r0
    23d8:	0000006b 	andeq	r0, r0, fp, rrx
    23dc:	000000ab 	andeq	r0, r0, fp, lsr #1
    23e0:	000000f0 	strdeq	r0, [r0], -r0	; <UNPREDICTABLE>
    23e4:	000000cf 	andeq	r0, r0, pc, asr #1
    23e8:	000000bc 	strheq	r0, [r0], -ip
    23ec:	00000020 	andeq	r0, r0, r0, lsr #32
    23f0:	0000009a 	muleq	r0, sl, r0
    23f4:	000000f4 	strdeq	r0, [r0], -r4
    23f8:	00000036 	andeq	r0, r0, r6, lsr r0
    23fc:	0000001d 	andeq	r0, r0, sp, lsl r0
    2400:	000000a9 	andeq	r0, r0, r9, lsr #1
    2404:	000000e3 	andeq	r0, r0, r3, ror #1
    2408:	00000091 	muleq	r0, r1, r0
    240c:	00000061 	andeq	r0, r0, r1, rrx
    2410:	0000005e 	andeq	r0, r0, lr, asr r0
    2414:	000000e6 	andeq	r0, r0, r6, ror #1
    2418:	0000001b 	andeq	r0, r0, fp, lsl r0
    241c:	00000008 	andeq	r0, r0, r8
    2420:	00000065 	andeq	r0, r0, r5, rrx
    2424:	00000099 	muleq	r0, r9, r0
    2428:	00000085 	andeq	r0, r0, r5, lsl #1
    242c:	0000005f 	andeq	r0, r0, pc, asr r0
    2430:	00000014 	andeq	r0, r0, r4, lsl r0
    2434:	000000a0 	andeq	r0, r0, r0, lsr #1
    2438:	00000068 	andeq	r0, r0, r8, rrx
    243c:	00000040 	andeq	r0, r0, r0, asr #32
    2440:	0000008d 	andeq	r0, r0, sp, lsl #1
    2444:	000000ff 	strdeq	r0, [r0], -pc	; <UNPREDICTABLE>
    2448:	000000d8 	ldrdeq	r0, [r0], -r8
    244c:	00000080 	andeq	r0, r0, r0, lsl #1
    2450:	0000004d 	andeq	r0, r0, sp, asr #32
    2454:	00000073 	andeq	r0, r0, r3, ror r0
    2458:	00000027 	andeq	r0, r0, r7, lsr #32
    245c:	00000031 	andeq	r0, r0, r1, lsr r0
    2460:	00000006 	andeq	r0, r0, r6
    2464:	00000006 	andeq	r0, r0, r6
    2468:	00000015 	andeq	r0, r0, r5, lsl r0
    246c:	00000056 	andeq	r0, r0, r6, asr r0
    2470:	000000ca 	andeq	r0, r0, sl, asr #1
    2474:	00000073 	andeq	r0, r0, r3, ror r0
    2478:	000000a8 	andeq	r0, r0, r8, lsr #1
    247c:	000000c9 	andeq	r0, r0, r9, asr #1
    2480:	00000060 	andeq	r0, r0, r0, rrx
    2484:	000000e2 	andeq	r0, r0, r2, ror #1
    2488:	0000007b 	andeq	r0, r0, fp, ror r0
    248c:	000000c0 	andeq	r0, r0, r0, asr #1
    2490:	0000008c 	andeq	r0, r0, ip, lsl #1
    2494:	0000006b 	andeq	r0, r0, fp, rrx
	...

000024a0 <PIo2>:
    24a0:	3fc90000 	svccc	0x00c90000
    24a4:	39f00000 	ldmibcc	r0!, {}^	; <UNPREDICTABLE>
    24a8:	37da0000 	ldrbcc	r0, [sl, r0]
    24ac:	33a20000 			; <UNDEFINED> instruction: 0x33a20000
    24b0:	2e840000 	cdpcs	0, 8, cr0, cr4, cr0, {0}
    24b4:	2b500000 	blcs	14024bc <memset+0x13fd2ac>
    24b8:	27c20000 	strbcs	r0, [r2, r0]
    24bc:	22d00000 	sbcscs	r0, r0, #0
    24c0:	1fc40000 	svcne	0x00c40000
    24c4:	1bc60000 	blne	ff1824cc <memset+0xff17d2bc>
    24c8:	17440000 	strbne	r0, [r4, -r0]
    24cc:	00000000 	andeq	r0, r0, r0

000024d0 <init_jk>:
    24d0:	00000004 	andeq	r0, r0, r4
    24d4:	00000007 	andeq	r0, r0, r7
    24d8:	00000009 	andeq	r0, r0, r9

Disassembly of section .text.check_faults:

000024dc <check_faults>:
    24dc:	f890 2178 	ldrb.w	r2, [r0, #376]	; 0x178
    24e0:	edd0 7a7f 	vldr	s15, [r0, #508]	; 0x1fc
    24e4:	4603      	mov	r3, r0
    24e6:	b9ca      	cbnz	r2, 251c <check_faults+0x40>
    24e8:	ed90 7a88 	vldr	s14, [r0, #544]	; 0x220
    24ec:	eddf 6a56 	vldr	s13, [pc, #344]	; 2648 <check_faults+0x16c>
    24f0:	f8b0 0044 	ldrh.w	r0, [r0, #68]	; 0x44
    24f4:	ee37 7ac7 	vsub.f32	s14, s15, s14
    24f8:	ee27 7a26 	vmul.f32	s14, s14, s13
    24fc:	ee06 0a90 	vmov	s13, r0
    2500:	eef8 6ae6 	vcvt.f32.s32	s13, s13
    2504:	eeb4 7ae6 	vcmpe.f32	s14, s13
    2508:	eef1 fa10 	vmrs	APSR_nzcv, fpscr
    250c:	dc00      	bgt.n	2510 <check_faults+0x34>
    250e:	b139      	cbz	r1, 2520 <check_faults+0x44>
    2510:	2209      	movs	r2, #9
    2512:	f883 2179 	strb.w	r2, [r3, #377]	; 0x179
    2516:	2101      	movs	r1, #1
    2518:	4608      	mov	r0, r1
    251a:	4770      	bx	lr
    251c:	edc0 7a88 	vstr	s15, [r0, #544]	; 0x220
    2520:	f893 0048 	ldrb.w	r0, [r3, #72]	; 0x48
    2524:	bb30      	cbnz	r0, 2574 <check_faults+0x98>
    2526:	2a01      	cmp	r2, #1
    2528:	d822      	bhi.n	2570 <check_faults+0x94>
    252a:	f8b3 2046 	ldrh.w	r2, [r3, #70]	; 0x46
    252e:	edd3 6a58 	vldr	s13, [r3, #352]	; 0x160
    2532:	ee07 2a10 	vmov	s14, r2
    2536:	eeb8 7ac7 	vcvt.f32.s32	s14, s14
    253a:	eef4 6ac7 	vcmpe.f32	s13, s14
    253e:	eef1 fa10 	vmrs	APSR_nzcv, fpscr
    2542:	d515      	bpl.n	2570 <check_faults+0x94>
    2544:	ed93 7a89 	vldr	s14, [r3, #548]	; 0x224
    2548:	eddf 6a3f 	vldr	s13, [pc, #252]	; 2648 <check_faults+0x16c>
    254c:	f8b3 2042 	ldrh.w	r2, [r3, #66]	; 0x42
    2550:	ee37 7ac7 	vsub.f32	s14, s15, s14
    2554:	ee27 7a26 	vmul.f32	s14, s14, s13
    2558:	ee06 2a90 	vmov	s13, r2
    255c:	eef8 6ae6 	vcvt.f32.s32	s13, s13
    2560:	eeb4 7ae6 	vcmpe.f32	s14, s13
    2564:	eef1 fa10 	vmrs	APSR_nzcv, fpscr
    2568:	dc00      	bgt.n	256c <check_faults+0x90>
    256a:	b119      	cbz	r1, 2574 <check_faults+0x98>
    256c:	2208      	movs	r2, #8
    256e:	e7d0      	b.n	2512 <check_faults+0x36>
    2570:	edc3 7a89 	vstr	s15, [r3, #548]	; 0x224
    2574:	ed93 7a4c 	vldr	s14, [r3, #304]	; 0x130
    2578:	edd3 6a0a 	vldr	s13, [r3, #40]	; 0x28
    257c:	eeb0 7ac7 	vabs.f32	s14, s14
    2580:	eeb4 7ae6 	vcmpe.f32	s14, s13
    2584:	eef1 fa10 	vmrs	APSR_nzcv, fpscr
    2588:	dd14      	ble.n	25b4 <check_faults+0xd8>
    258a:	ed93 7a86 	vldr	s14, [r3, #536]	; 0x218
    258e:	eddf 6a2e 	vldr	s13, [pc, #184]	; 2648 <check_faults+0x16c>
    2592:	8f9a      	ldrh	r2, [r3, #60]	; 0x3c
    2594:	ee37 7ac7 	vsub.f32	s14, s15, s14
    2598:	ee27 7a26 	vmul.f32	s14, s14, s13
    259c:	ee06 2a90 	vmov	s13, r2
    25a0:	eef8 6ae6 	vcvt.f32.s32	s13, s13
    25a4:	eeb4 7ae6 	vcmpe.f32	s14, s13
    25a8:	eef1 fa10 	vmrs	APSR_nzcv, fpscr
    25ac:	dc00      	bgt.n	25b0 <check_faults+0xd4>
    25ae:	b119      	cbz	r1, 25b8 <check_faults+0xdc>
    25b0:	2206      	movs	r2, #6
    25b2:	e7ae      	b.n	2512 <check_faults+0x36>
    25b4:	edc3 7a86 	vstr	s15, [r3, #536]	; 0x218
    25b8:	ed93 7a4e 	vldr	s14, [r3, #312]	; 0x138
    25bc:	edd3 6a0b 	vldr	s13, [r3, #44]	; 0x2c
    25c0:	eeb0 7ac7 	vabs.f32	s14, s14
    25c4:	eeb4 7ae6 	vcmpe.f32	s14, s13
    25c8:	eef1 fa10 	vmrs	APSR_nzcv, fpscr
    25cc:	dd14      	ble.n	25f8 <check_faults+0x11c>
    25ce:	ed93 7a87 	vldr	s14, [r3, #540]	; 0x21c
    25d2:	eddf 6a1d 	vldr	s13, [pc, #116]	; 2648 <check_faults+0x16c>
    25d6:	8fda      	ldrh	r2, [r3, #62]	; 0x3e
    25d8:	ee37 7ac7 	vsub.f32	s14, s15, s14
    25dc:	ee27 7a26 	vmul.f32	s14, s14, s13
    25e0:	ee06 2a90 	vmov	s13, r2
    25e4:	eef8 6ae6 	vcvt.f32.s32	s13, s13
    25e8:	eeb4 7ae6 	vcmpe.f32	s14, s13
    25ec:	eef1 fa10 	vmrs	APSR_nzcv, fpscr
    25f0:	dc00      	bgt.n	25f4 <check_faults+0x118>
    25f2:	b119      	cbz	r1, 25fc <check_faults+0x120>
    25f4:	2207      	movs	r2, #7
    25f6:	e78c      	b.n	2512 <check_faults+0x36>
    25f8:	edc3 7a87 	vstr	s15, [r3, #540]	; 0x21c
    25fc:	edd3 6a56 	vldr	s13, [r3, #344]	; 0x158
    2600:	ed93 7a0c 	vldr	s14, [r3, #48]	; 0x30
    2604:	eef4 6ac7 	vcmpe.f32	s13, s14
    2608:	eef1 fa10 	vmrs	APSR_nzcv, fpscr
    260c:	dd17      	ble.n	263e <check_faults+0x162>
    260e:	ed93 7a8a 	vldr	s14, [r3, #552]	; 0x228
    2612:	f8b3 2040 	ldrh.w	r2, [r3, #64]	; 0x40
    2616:	ee77 7ac7 	vsub.f32	s15, s15, s14
    261a:	ed9f 7a0b 	vldr	s14, [pc, #44]	; 2648 <check_faults+0x16c>
    261e:	ee67 7a87 	vmul.f32	s15, s15, s14
    2622:	ee07 2a10 	vmov	s14, r2
    2626:	eeb8 7ac7 	vcvt.f32.s32	s14, s14
    262a:	eef4 7ac7 	vcmpe.f32	s15, s14
    262e:	eef1 fa10 	vmrs	APSR_nzcv, fpscr
    2632:	dc02      	bgt.n	263a <check_faults+0x15e>
    2634:	2900      	cmp	r1, #0
    2636:	f43f af6f 	beq.w	2518 <check_faults+0x3c>
    263a:	220a      	movs	r2, #10
    263c:	e769      	b.n	2512 <check_faults+0x36>
    263e:	edc3 7a8a 	vstr	s15, [r3, #552]	; 0x228
    2642:	2100      	movs	r1, #0
    2644:	e768      	b.n	2518 <check_faults+0x3c>
    2646:	bf00      	nop
    2648:	447a0000 	ldrbtmi	r0, [sl], #-0

Disassembly of section .text.app_balance_get_debug:

0000264c <app_balance_get_debug>:
    264c:	b510      	push	{r4, lr}
    264e:	4b2b      	ldr	r3, [pc, #172]	; (26fc <app_balance_get_debug+0xb0>)
    2650:	4604      	mov	r4, r0
    2652:	482c      	ldr	r0, [pc, #176]	; (2704 <app_balance_get_debug+0xb8>)
    2654:	f8d3 30cc 	ldr.w	r3, [r3, #204]	; 0xcc
    2658:	4478      	add	r0, pc
    265a:	4798      	blx	r3
    265c:	6803      	ldr	r3, [r0, #0]
    265e:	1e60      	subs	r0, r4, #1
    2660:	2810      	cmp	r0, #16
    2662:	d847      	bhi.n	26f4 <app_balance_get_debug+0xa8>
    2664:	e8df f000 	tbb	[pc, r0]
    2668:	120f0c09 	andne	r0, pc, #2304	; 0x900
    266c:	221f1c15 	andscs	r1, pc, #5376	; 0x1500
    2670:	2e2b2825 	cdpcs	8, 2, cr2, cr11, cr5, {1}
    2674:	3e373431 	mrccc	4, 1, r3, cr7, cr1, {1}
    2678:	ed930041 	ldc	0, cr0, [r3, #260]	; 0x104
    267c:	0a5b      	lsrs	r3, r3, #9
    267e:	bd10      	pop	{r4, pc}
    2680:	ed93 0a68 	vldr	s0, [r3, #416]	; 0x1a0
    2684:	e7fb      	b.n	267e <app_balance_get_debug+0x32>
    2686:	ed93 0a6c 	vldr	s0, [r3, #432]	; 0x1b0
    268a:	e7f8      	b.n	267e <app_balance_get_debug+0x32>
    268c:	ed93 0a61 	vldr	s0, [r3, #388]	; 0x184
    2690:	e7f5      	b.n	267e <app_balance_get_debug+0x32>
    2692:	ed93 0a4d 	vldr	s0, [r3, #308]	; 0x134
    2696:	edd3 7a4c 	vldr	s15, [r3, #304]	; 0x130
    269a:	ee30 0a67 	vsub.f32	s0, s0, s15
    269e:	e7ee      	b.n	267e <app_balance_get_debug+0x32>
    26a0:	ed93 0a5a 	vldr	s0, [r3, #360]	; 0x168
    26a4:	e7eb      	b.n	267e <app_balance_get_debug+0x32>
    26a6:	ed93 0a57 	vldr	s0, [r3, #348]	; 0x15c
    26aa:	e7e8      	b.n	267e <app_balance_get_debug+0x32>
    26ac:	ed93 0a58 	vldr	s0, [r3, #352]	; 0x160
    26b0:	e7e5      	b.n	267e <app_balance_get_debug+0x32>
    26b2:	ed93 0a40 	vldr	s0, [r3, #256]	; 0x100
    26b6:	e7e2      	b.n	267e <app_balance_get_debug+0x32>
    26b8:	ed93 0a81 	vldr	s0, [r3, #516]	; 0x204
    26bc:	e7df      	b.n	267e <app_balance_get_debug+0x32>
    26be:	ed93 0a82 	vldr	s0, [r3, #520]	; 0x208
    26c2:	e7dc      	b.n	267e <app_balance_get_debug+0x32>
    26c4:	ed93 0a83 	vldr	s0, [r3, #524]	; 0x20c
    26c8:	e7d9      	b.n	267e <app_balance_get_debug+0x32>
    26ca:	ed93 0a85 	vldr	s0, [r3, #532]	; 0x214
    26ce:	e7d6      	b.n	267e <app_balance_get_debug+0x32>
    26d0:	ed93 0a60 	vldr	s0, [r3, #384]	; 0x180
    26d4:	e7d3      	b.n	267e <app_balance_get_debug+0x32>
    26d6:	ed93 0a60 	vldr	s0, [r3, #384]	; 0x180
    26da:	edd3 7a04 	vldr	s15, [r3, #16]
    26de:	ee20 0a27 	vmul.f32	s0, s0, s15
    26e2:	e7cc      	b.n	267e <app_balance_get_debug+0x32>
    26e4:	ed93 0a63 	vldr	s0, [r3, #396]	; 0x18c
    26e8:	e7c9      	b.n	267e <app_balance_get_debug+0x32>
    26ea:	ed93 0a63 	vldr	s0, [r3, #396]	; 0x18c
    26ee:	edd3 7a07 	vldr	s15, [r3, #28]
    26f2:	e7f4      	b.n	26de <app_balance_get_debug+0x92>
    26f4:	ed9f 0a02 	vldr	s0, [pc, #8]	; 2700 <app_balance_get_debug+0xb4>
    26f8:	e7c1      	b.n	267e <app_balance_get_debug+0x32>
    26fa:	bf00      	nop
    26fc:	1000f800 	andne	pc, r0, r0, lsl #16
    2700:	00000000 	andeq	r0, r0, r0
    2704:	ffffd9a4 			; <UNDEFINED> instruction: 0xffffd9a4

Disassembly of section .text.get_cfg_xml:

00002708 <get_cfg_xml>:
    2708:	4b05      	ldr	r3, [pc, #20]	; (2720 <get_cfg_xml+0x18>)
    270a:	4a06      	ldr	r2, [pc, #24]	; (2724 <get_cfg_xml+0x1c>)
    270c:	447b      	add	r3, pc
    270e:	589a      	ldr	r2, [r3, r2]
    2710:	4b05      	ldr	r3, [pc, #20]	; (2728 <get_cfg_xml+0x20>)
    2712:	447b      	add	r3, pc
    2714:	4413      	add	r3, r2
    2716:	6003      	str	r3, [r0, #0]
    2718:	f641 2018 	movw	r0, #6680	; 0x1a18
    271c:	4770      	bx	lr
    271e:	bf00      	nop
    2720:	fffff850 			; <UNDEFINED> instruction: 0xfffff850
    2724:	00000000 	andeq	r0, r0, r0
    2728:	ffffd8ea 			; <UNDEFINED> instruction: 0xffffd8ea

Disassembly of section .text.stop:

0000272c <stop>:
    272c:	b570      	push	{r4, r5, r6, lr}
    272e:	4c0a      	ldr	r4, [pc, #40]	; (2758 <stop+0x2c>)
    2730:	4605      	mov	r5, r0
    2732:	f8d4 32dc 	ldr.w	r3, [r4, #732]	; 0x2dc
    2736:	4798      	blx	r3
    2738:	f8d4 30c4 	ldr.w	r3, [r4, #196]	; 0xc4
    273c:	6828      	ldr	r0, [r5, #0]
    273e:	4798      	blx	r3
    2740:	4806      	ldr	r0, [pc, #24]	; (275c <stop+0x30>)
    2742:	f8d4 30b4 	ldr.w	r3, [r4, #180]	; 0xb4
    2746:	4478      	add	r0, pc
    2748:	4798      	blx	r3
    274a:	f8d4 30bc 	ldr.w	r3, [r4, #188]	; 0xbc
    274e:	4628      	mov	r0, r5
    2750:	e8bd 4070 	ldmia.w	sp!, {r4, r5, r6, lr}
    2754:	4718      	bx	r3
    2756:	bf00      	nop
    2758:	1000f800 	andne	pc, r0, r0, lsl #16
    275c:	fffff966 			; <UNDEFINED> instruction: 0xfffff966

Disassembly of section .text.realtime_data_thd:

00002760 <realtime_data_thd>:
    2760:	b5f0      	push	{r4, r5, r6, r7, lr}
    2762:	4f2e      	ldr	r7, [pc, #184]	; (281c <realtime_data_thd+0xbc>)
    2764:	b08f      	sub	sp, #60	; 0x3c
    2766:	4605      	mov	r5, r0
    2768:	466e      	mov	r6, sp
    276a:	f8d7 30c8 	ldr.w	r3, [r7, #200]	; 0xc8
    276e:	4798      	blx	r3
    2770:	4604      	mov	r4, r0
    2772:	b108      	cbz	r0, 2778 <realtime_data_thd+0x18>
    2774:	b00f      	add	sp, #60	; 0x3c
    2776:	bdf0      	pop	{r4, r5, r6, r7, pc}
    2778:	f8d7 30a4 	ldr.w	r3, [r7, #164]	; 0xa4
    277c:	200a      	movs	r0, #10
    277e:	4798      	blx	r3
    2780:	9400      	str	r4, [sp, #0]
    2782:	ac01      	add	r4, sp, #4
    2784:	4631      	mov	r1, r6
    2786:	ed95 0a67 	vldr	s0, [r5, #412]	; 0x19c
    278a:	4620      	mov	r0, r4
    278c:	f001 f84a 	bl	3824 <buffer_append_float32_auto>
    2790:	4631      	mov	r1, r6
    2792:	ed95 0a4c 	vldr	s0, [r5, #304]	; 0x130
    2796:	4620      	mov	r0, r4
    2798:	f001 f844 	bl	3824 <buffer_append_float32_auto>
    279c:	4631      	mov	r1, r6
    279e:	ed95 0a4e 	vldr	s0, [r5, #312]	; 0x138
    27a2:	4620      	mov	r0, r4
    27a4:	f001 f83e 	bl	3824 <buffer_append_float32_auto>
    27a8:	4631      	mov	r1, r6
    27aa:	ed95 0a81 	vldr	s0, [r5, #516]	; 0x204
    27ae:	4620      	mov	r0, r4
    27b0:	f001 f838 	bl	3824 <buffer_append_float32_auto>
    27b4:	4631      	mov	r1, r6
    27b6:	ed95 0a5a 	vldr	s0, [r5, #360]	; 0x168
    27ba:	4620      	mov	r0, r4
    27bc:	f001 f832 	bl	3824 <buffer_append_float32_auto>
    27c0:	f8d5 0244 	ldr.w	r0, [r5, #580]	; 0x244
    27c4:	f7ff ff42 	bl	264c <app_balance_get_debug>
    27c8:	4631      	mov	r1, r6
    27ca:	4620      	mov	r0, r4
    27cc:	f001 f82a 	bl	3824 <buffer_append_float32_auto>
    27d0:	4632      	mov	r2, r6
    27d2:	f895 1179 	ldrb.w	r1, [r5, #377]	; 0x179
    27d6:	4620      	mov	r0, r4
    27d8:	f000 fff9 	bl	37ce <buffer_append_uint16>
    27dc:	4632      	mov	r2, r6
    27de:	f895 1178 	ldrb.w	r1, [r5, #376]	; 0x178
    27e2:	4620      	mov	r0, r4
    27e4:	f000 fff3 	bl	37ce <buffer_append_uint16>
    27e8:	4631      	mov	r1, r6
    27ea:	ed95 0a5c 	vldr	s0, [r5, #368]	; 0x170
    27ee:	4620      	mov	r0, r4
    27f0:	f001 f818 	bl	3824 <buffer_append_float32_auto>
    27f4:	4631      	mov	r1, r6
    27f6:	ed95 0a5d 	vldr	s0, [r5, #372]	; 0x174
    27fa:	4620      	mov	r0, r4
    27fc:	f001 f812 	bl	3824 <buffer_append_float32_auto>
    2800:	f8d5 0248 	ldr.w	r0, [r5, #584]	; 0x248
    2804:	f7ff ff22 	bl	264c <app_balance_get_debug>
    2808:	4631      	mov	r1, r6
    280a:	4620      	mov	r0, r4
    280c:	f001 f80a 	bl	3824 <buffer_append_float32_auto>
    2810:	f8d7 3250 	ldr.w	r3, [r7, #592]	; 0x250
    2814:	9900      	ldr	r1, [sp, #0]
    2816:	4620      	mov	r0, r4
    2818:	4798      	blx	r3
    281a:	e7a6      	b.n	276a <realtime_data_thd+0xa>
    281c:	1000f800 	andne	pc, r0, r0, lsl #16

Disassembly of section .text.get_cfg:

00002820 <get_cfg>:
    2820:	e92d 41f0 	stmdb	sp!, {r4, r5, r6, r7, r8, lr}
    2824:	4c11      	ldr	r4, [pc, #68]	; (286c <get_cfg+0x4c>)
    2826:	4606      	mov	r6, r0
    2828:	4811      	ldr	r0, [pc, #68]	; (2870 <get_cfg+0x50>)
    282a:	f8d4 30cc 	ldr.w	r3, [r4, #204]	; 0xcc
    282e:	4478      	add	r0, pc
    2830:	460f      	mov	r7, r1
    2832:	4798      	blx	r3
    2834:	f8d4 30b8 	ldr.w	r3, [r4, #184]	; 0xb8
    2838:	f8d0 8000 	ldr.w	r8, [r0]
    283c:	20f8      	movs	r0, #248	; 0xf8
    283e:	4798      	blx	r3
    2840:	22f8      	movs	r2, #248	; 0xf8
    2842:	f108 0108 	add.w	r1, r8, #8
    2846:	4605      	mov	r5, r0
    2848:	f7ff fb92 	bl	1f70 <memcpy>
    284c:	b117      	cbz	r7, 2854 <get_cfg+0x34>
    284e:	4628      	mov	r0, r5
    2850:	f001 fc08 	bl	4064 <confparser_set_defaults_balance_config>
    2854:	4629      	mov	r1, r5
    2856:	4630      	mov	r0, r6
    2858:	f001 f888 	bl	396c <confparser_serialize_balance_config>
    285c:	f8d4 30bc 	ldr.w	r3, [r4, #188]	; 0xbc
    2860:	4606      	mov	r6, r0
    2862:	4628      	mov	r0, r5
    2864:	4798      	blx	r3
    2866:	4630      	mov	r0, r6
    2868:	e8bd 81f0 	ldmia.w	sp!, {r4, r5, r6, r7, r8, pc}
    286c:	1000f800 	andne	pc, r0, r0, lsl #16
    2870:	ffffd7ce 			; <UNDEFINED> instruction: 0xffffd7ce

Disassembly of section .text.brake:

00002874 <brake>:
    2874:	b5f8      	push	{r3, r4, r5, r6, r7, lr}
    2876:	f8b0 30b4 	ldrh.w	r3, [r0, #180]	; 0xb4
    287a:	ed2d 8b02 	vpush	{d8}
    287e:	4604      	mov	r4, r0
    2880:	b1cb      	cbz	r3, 28b6 <brake+0x42>
    2882:	ed90 7a58 	vldr	s14, [r0, #352]	; 0x160
    2886:	eef7 7a00 	vmov.f32	s15, #112	; 0x3f800000  1.0
    288a:	eeb4 7ae7 	vcmpe.f32	s14, s15
    288e:	eef1 fa10 	vmrs	APSR_nzcv, fpscr
    2892:	dc06      	bgt.n	28a2 <brake+0x2e>
    2894:	edd0 7a90 	vldr	s15, [r0, #576]	; 0x240
    2898:	eef5 7a40 	vcmp.f32	s15, #0.0
    289c:	eef1 fa10 	vmrs	APSR_nzcv, fpscr
    28a0:	d109      	bne.n	28b6 <brake+0x42>
    28a2:	ee07 3a90 	vmov	s15, r3
    28a6:	ed94 7a7f 	vldr	s14, [r4, #508]	; 0x1fc
    28aa:	eef8 7ae7 	vcvt.f32.s32	s15, s15
    28ae:	ee77 7a27 	vadd.f32	s15, s14, s15
    28b2:	edc4 7a90 	vstr	s15, [r4, #576]	; 0x240
    28b6:	edd4 7a90 	vldr	s15, [r4, #576]	; 0x240
    28ba:	eef5 7a40 	vcmp.f32	s15, #0.0
    28be:	eef1 fa10 	vmrs	APSR_nzcv, fpscr
    28c2:	d006      	beq.n	28d2 <brake+0x5e>
    28c4:	ed94 7a7f 	vldr	s14, [r4, #508]	; 0x1fc
    28c8:	eef4 7ac7 	vcmpe.f32	s15, s14
    28cc:	eef1 fa10 	vmrs	APSR_nzcv, fpscr
    28d0:	d426      	bmi.n	2920 <brake+0xac>
    28d2:	4d16      	ldr	r5, [pc, #88]	; (292c <brake+0xb8>)
    28d4:	f8d5 32bc 	ldr.w	r3, [r5, #700]	; 0x2bc
    28d8:	4798      	blx	r3
    28da:	f8d5 318c 	ldr.w	r3, [r5, #396]	; 0x18c
    28de:	ed94 0a2c 	vldr	s0, [r4, #176]	; 0xb0
    28e2:	4798      	blx	r3
    28e4:	f894 3098 	ldrb.w	r3, [r4, #152]	; 0x98
    28e8:	b1d3      	cbz	r3, 2920 <brake+0xac>
    28ea:	ed9f 8a11 	vldr	s16, [pc, #68]	; 2930 <brake+0xbc>
    28ee:	2600      	movs	r6, #0
    28f0:	f8d5 312c 	ldr.w	r3, [r5, #300]	; 0x12c
    28f4:	4630      	mov	r0, r6
    28f6:	4798      	blx	r3
    28f8:	6803      	ldr	r3, [r0, #0]
    28fa:	2b00      	cmp	r3, #0
    28fc:	4607      	mov	r7, r0
    28fe:	db0e      	blt.n	291e <brake+0xaa>
    2900:	f8d5 30b0 	ldr.w	r3, [r5, #176]	; 0xb0
    2904:	6840      	ldr	r0, [r0, #4]
    2906:	4798      	blx	r3
    2908:	eeb4 0ac8 	vcmpe.f32	s0, s16
    290c:	eef1 fa10 	vmrs	APSR_nzcv, fpscr
    2910:	d505      	bpl.n	291e <brake+0xaa>
    2912:	f8d5 3110 	ldr.w	r3, [r5, #272]	; 0x110
    2916:	ed94 0a2c 	vldr	s0, [r4, #176]	; 0xb0
    291a:	7838      	ldrb	r0, [r7, #0]
    291c:	4798      	blx	r3
    291e:	b116      	cbz	r6, 2926 <brake+0xb2>
    2920:	ecbd 8b02 	vpop	{d8}
    2924:	bdf8      	pop	{r3, r4, r5, r6, r7, pc}
    2926:	2601      	movs	r6, #1
    2928:	e7e2      	b.n	28f0 <brake+0x7c>
    292a:	bf00      	nop
    292c:	1000f800 	andne	pc, r0, r0, lsl #16
    2930:	3dcccccd 	stclcc	12, cr12, [ip, #820]	; 0x334

Disassembly of section .text.ext_bal_dbg:

00002934 <ext_bal_dbg>:
    2934:	2901      	cmp	r1, #1
    2936:	b570      	push	{r4, r5, r6, lr}
    2938:	4605      	mov	r5, r0
    293a:	4c09      	ldr	r4, [pc, #36]	; (2960 <ext_bal_dbg+0x2c>)
    293c:	d10d      	bne.n	295a <ext_bal_dbg+0x26>
    293e:	6fe3      	ldr	r3, [r4, #124]	; 0x7c
    2940:	6800      	ldr	r0, [r0, #0]
    2942:	4798      	blx	r3
    2944:	b148      	cbz	r0, 295a <ext_bal_dbg+0x26>
    2946:	6e63      	ldr	r3, [r4, #100]	; 0x64
    2948:	6ce6      	ldr	r6, [r4, #76]	; 0x4c
    294a:	6828      	ldr	r0, [r5, #0]
    294c:	4798      	blx	r3
    294e:	f7ff fe7d 	bl	264c <app_balance_get_debug>
    2952:	4633      	mov	r3, r6
    2954:	e8bd 4070 	ldmia.w	sp!, {r4, r5, r6, lr}
    2958:	4718      	bx	r3
    295a:	f8d4 0094 	ldr.w	r0, [r4, #148]	; 0x94
    295e:	bd70      	pop	{r4, r5, r6, pc}
    2960:	1000f800 	andne	pc, r0, r0, lsl #16

Disassembly of section .text.configure:

00002964 <configure>:
    2964:	b510      	push	{r4, lr}
    2966:	8c83      	ldrh	r3, [r0, #36]	; 0x24
    2968:	edd0 5a24 	vldr	s11, [r0, #144]	; 0x90
    296c:	ee06 3a90 	vmov	s13, r3
    2970:	eef8 7ae6 	vcvt.f32.s32	s15, s13
    2974:	ed2d 8b02 	vpush	{d8}
    2978:	eeb7 8a00 	vmov.f32	s16, #112	; 0x3f800000  1.0
    297c:	ee88 7a27 	vdiv.f32	s14, s16, s15
    2980:	8cc3      	ldrh	r3, [r0, #38]	; 0x26
    2982:	4604      	mov	r4, r0
    2984:	eeb3 6a04 	vmov.f32	s12, #52	; 0x41a00000  20.0
    2988:	ee27 6a06 	vmul.f32	s12, s14, s12
    298c:	ed80 7a40 	vstr	s14, [r0, #256]	; 0x100
    2990:	ed80 6a8f 	vstr	s12, [r0, #572]	; 0x23c
    2994:	ee85 6aa7 	vdiv.f32	s12, s11, s15
    2998:	edd0 5a14 	vldr	s11, [r0, #80]	; 0x50
    299c:	ed80 6a41 	vstr	s12, [r0, #260]	; 0x104
    29a0:	ee85 6aa7 	vdiv.f32	s12, s11, s15
    29a4:	edd0 5a17 	vldr	s11, [r0, #92]	; 0x5c
    29a8:	ed80 6a42 	vstr	s12, [r0, #264]	; 0x108
    29ac:	ee85 6aa7 	vdiv.f32	s12, s11, s15
    29b0:	edd0 5a1a 	vldr	s11, [r0, #104]	; 0x68
    29b4:	ed80 6a43 	vstr	s12, [r0, #268]	; 0x10c
    29b8:	ee85 6aa7 	vdiv.f32	s12, s11, s15
    29bc:	edd0 5a1c 	vldr	s11, [r0, #112]	; 0x70
    29c0:	ed80 6a44 	vstr	s12, [r0, #272]	; 0x110
    29c4:	ee85 6aa7 	vdiv.f32	s12, s11, s15
    29c8:	edd0 5a36 	vldr	s11, [r0, #216]	; 0xd8
    29cc:	ed80 6a45 	vstr	s12, [r0, #276]	; 0x114
    29d0:	ee85 6aa7 	vdiv.f32	s12, s11, s15
    29d4:	edd0 5a37 	vldr	s11, [r0, #220]	; 0xdc
    29d8:	ed80 6a46 	vstr	s12, [r0, #280]	; 0x118
    29dc:	ee85 6aa7 	vdiv.f32	s12, s11, s15
    29e0:	edd0 5a3e 	vldr	s11, [r0, #248]	; 0xf8
    29e4:	ed80 6a47 	vstr	s12, [r0, #284]	; 0x11c
    29e8:	ee85 6aa7 	vdiv.f32	s12, s11, s15
    29ec:	edd0 5a21 	vldr	s11, [r0, #132]	; 0x84
    29f0:	ed80 6a48 	vstr	s12, [r0, #288]	; 0x120
    29f4:	ee85 6aa7 	vdiv.f32	s12, s11, s15
    29f8:	ed80 6a4b 	vstr	s12, [r0, #300]	; 0x12c
    29fc:	b19b      	cbz	r3, 2a26 <configure+0xc2>
    29fe:	eef8 6a66 	vcvt.f32.u32	s13, s13
    2a02:	ee88 6a26 	vdiv.f32	s12, s16, s13
    2a06:	eddf 6a46 	vldr	s13, [pc, #280]	; 2b20 <configure+0x1bc>
    2a0a:	ee26 6a26 	vmul.f32	s12, s12, s13
    2a0e:	ee06 3a90 	vmov	s13, r3
    2a12:	eef8 6a66 	vcvt.f32.u32	s13, s13
    2a16:	ee66 6a26 	vmul.f32	s13, s12, s13
    2a1a:	ee76 5a88 	vadd.f32	s11, s13, s16
    2a1e:	ee86 6aa5 	vdiv.f32	s12, s13, s11
    2a22:	ed80 6a84 	vstr	s12, [r0, #528]	; 0x210
    2a26:	f8b4 30c0 	ldrh.w	r3, [r4, #192]	; 0xc0
    2a2a:	b17b      	cbz	r3, 2a4c <configure+0xe8>
    2a2c:	ee06 3a90 	vmov	s13, r3
    2a30:	ed9f 6a3b 	vldr	s12, [pc, #236]	; 2b20 <configure+0x1bc>
    2a34:	eef8 6ae6 	vcvt.f32.s32	s13, s13
    2a38:	ee66 6a86 	vmul.f32	s13, s13, s12
    2a3c:	ee88 6a26 	vdiv.f32	s12, s16, s13
    2a40:	ee76 6a07 	vadd.f32	s13, s12, s14
    2a44:	ee87 6a26 	vdiv.f32	s12, s14, s13
    2a48:	ed84 6a8c 	vstr	s12, [r4, #560]	; 0x230
    2a4c:	f8b4 30c2 	ldrh.w	r3, [r4, #194]	; 0xc2
    2a50:	b17b      	cbz	r3, 2a72 <configure+0x10e>
    2a52:	ee06 3a90 	vmov	s13, r3
    2a56:	ed9f 6a32 	vldr	s12, [pc, #200]	; 2b20 <configure+0x1bc>
    2a5a:	eef8 6ae6 	vcvt.f32.s32	s13, s13
    2a5e:	ee66 6a86 	vmul.f32	s13, s13, s12
    2a62:	ee88 6a26 	vdiv.f32	s12, s16, s13
    2a66:	ee76 6a07 	vadd.f32	s13, s12, s14
    2a6a:	ee87 6a26 	vdiv.f32	s12, s14, s13
    2a6e:	ed84 6a8e 	vstr	s12, [r4, #568]	; 0x238
    2a72:	ed94 7a39 	vldr	s14, [r4, #228]	; 0xe4
    2a76:	eeb5 7ac0 	vcmpe.f32	s14, #0.0
    2a7a:	eef1 fa10 	vmrs	APSR_nzcv, fpscr
    2a7e:	dd2d      	ble.n	2adc <configure+0x178>
    2a80:	ee87 0a27 	vdiv.f32	s0, s14, s15
    2a84:	eddf 7a27 	vldr	s15, [pc, #156]	; 2b24 <configure+0x1c0>
    2a88:	ee20 0a27 	vmul.f32	s0, s0, s15
    2a8c:	f001 fd06 	bl	449c <tanf>
    2a90:	eddf 7a25 	vldr	s15, [pc, #148]	; 2b28 <configure+0x1c4>
    2a94:	eec0 6a27 	vdiv.f32	s13, s0, s15
    2a98:	ee20 0a00 	vmul.f32	s0, s0, s0
    2a9c:	ee76 7a88 	vadd.f32	s15, s13, s16
    2aa0:	ee77 7a80 	vadd.f32	s15, s15, s0
    2aa4:	ee88 7a27 	vdiv.f32	s14, s16, s15
    2aa8:	ee60 7a07 	vmul.f32	s15, s0, s14
    2aac:	ee37 6aa7 	vadd.f32	s12, s15, s15
    2ab0:	edc4 7a6f 	vstr	s15, [r4, #444]	; 0x1bc
    2ab4:	edc4 7a71 	vstr	s15, [r4, #452]	; 0x1c4
    2ab8:	ee70 7a48 	vsub.f32	s15, s0, s16
    2abc:	ee38 8a66 	vsub.f32	s16, s16, s13
    2ac0:	ee77 7aa7 	vadd.f32	s15, s15, s15
    2ac4:	ee38 8a00 	vadd.f32	s16, s16, s0
    2ac8:	ee67 7a87 	vmul.f32	s15, s15, s14
    2acc:	ee28 8a07 	vmul.f32	s16, s16, s14
    2ad0:	ed84 6a70 	vstr	s12, [r4, #448]	; 0x1c0
    2ad4:	edc4 7a72 	vstr	s15, [r4, #456]	; 0x1c8
    2ad8:	ed84 8a73 	vstr	s16, [r4, #460]	; 0x1cc
    2adc:	eddf 7a13 	vldr	s15, [pc, #76]	; 2b2c <configure+0x1c8>
    2ae0:	edd4 6a1f 	vldr	s13, [r4, #124]	; 0x7c
    2ae4:	ee86 7aa7 	vdiv.f32	s14, s13, s15
    2ae8:	ecbd 8b02 	vpop	{d8}
    2aec:	eeb5 7ac0 	vcmpe.f32	s14, #0.0
    2af0:	eef1 fa10 	vmrs	APSR_nzcv, fpscr
    2af4:	bfcd      	iteet	gt
    2af6:	edd4 6a20 	vldrgt	s13, [r4, #128]	; 0x80
    2afa:	4b0d      	ldrle	r3, [pc, #52]	; (2b30 <configure+0x1cc>)
    2afc:	f8c4 3128 	strle.w	r3, [r4, #296]	; 0x128
    2b00:	eec6 7a87 	vdivgt.f32	s15, s13, s14
    2b04:	f04f 0300 	mov.w	r3, #0
    2b08:	f8c4 3200 	str.w	r3, [r4, #512]	; 0x200
    2b0c:	f8c4 320c 	str.w	r3, [r4, #524]	; 0x20c
    2b10:	ed84 7a49 	vstr	s14, [r4, #292]	; 0x124
    2b14:	bfc4      	itt	gt
    2b16:	eef0 7ae7 	vabsgt.f32	s15, s15
    2b1a:	edc4 7a4a 	vstrgt	s15, [r4, #296]	; 0x128
    2b1e:	bd10      	pop	{r4, pc}
    2b20:	40c90fdb 	ldrdmi	r0, [r9], #251	; 0xfb
    2b24:	40490fdb 	ldrdmi	r0, [r9], #-251	; 0xffffff05
    2b28:	3f34fdf4 	svccc	0x0034fdf4
    2b2c:	447a0000 	ldrbtmi	r0, [sl], #-0
    2b30:	47c35000 	strbmi	r5, [r3, r0]

Disassembly of section .text.set_cfg:

00002b34 <set_cfg>:
    2b34:	e92d 47f3 	stmdb	sp!, {r0, r1, r4, r5, r6, r7, r8, r9, sl, lr}
    2b38:	4606      	mov	r6, r0
    2b3a:	4c1e      	ldr	r4, [pc, #120]	; (2bb4 <set_cfg+0x80>)
    2b3c:	481f      	ldr	r0, [pc, #124]	; (2bbc <set_cfg+0x88>)
    2b3e:	f8d4 30cc 	ldr.w	r3, [r4, #204]	; 0xcc
    2b42:	4478      	add	r0, pc
    2b44:	4798      	blx	r3
    2b46:	f8d0 9000 	ldr.w	r9, [r0]
    2b4a:	f109 0508 	add.w	r5, r9, #8
    2b4e:	4629      	mov	r1, r5
    2b50:	4630      	mov	r0, r6
    2b52:	f001 f8c7 	bl	3ce4 <confparser_deserialize_balance_config>
    2b56:	4680      	mov	r8, r0
    2b58:	b338      	cbz	r0, 2baa <set_cfg+0x76>
    2b5a:	f8d4 30b8 	ldr.w	r3, [r4, #184]	; 0xb8
    2b5e:	20fc      	movs	r0, #252	; 0xfc
    2b60:	4798      	blx	r3
    2b62:	4629      	mov	r1, r5
    2b64:	22f8      	movs	r2, #248	; 0xf8
    2b66:	4607      	mov	r7, r0
    2b68:	f7ff fa02 	bl	1f70 <memcpy>
    2b6c:	2500      	movs	r5, #0
    2b6e:	f10d 0a04 	add.w	sl, sp, #4
    2b72:	f857 3025 	ldr.w	r3, [r7, r5, lsl #2]
    2b76:	9301      	str	r3, [sp, #4]
    2b78:	3501      	adds	r5, #1
    2b7a:	f8d4 32b8 	ldr.w	r3, [r4, #696]	; 0x2b8
    2b7e:	4629      	mov	r1, r5
    2b80:	4650      	mov	r0, sl
    2b82:	4798      	blx	r3
    2b84:	4606      	mov	r6, r0
    2b86:	b108      	cbz	r0, 2b8c <set_cfg+0x58>
    2b88:	2d3f      	cmp	r5, #63	; 0x3f
    2b8a:	d1f2      	bne.n	2b72 <set_cfg+0x3e>
    2b8c:	f8d4 30bc 	ldr.w	r3, [r4, #188]	; 0xbc
    2b90:	4638      	mov	r0, r7
    2b92:	4798      	blx	r3
    2b94:	b136      	cbz	r6, 2ba4 <set_cfg+0x70>
    2b96:	4b08      	ldr	r3, [pc, #32]	; (2bb8 <set_cfg+0x84>)
    2b98:	9301      	str	r3, [sp, #4]
    2b9a:	2100      	movs	r1, #0
    2b9c:	f8d4 32b8 	ldr.w	r3, [r4, #696]	; 0x2b8
    2ba0:	4650      	mov	r0, sl
    2ba2:	4798      	blx	r3
    2ba4:	4648      	mov	r0, r9
    2ba6:	f7ff fedd 	bl	2964 <configure>
    2baa:	4640      	mov	r0, r8
    2bac:	b002      	add	sp, #8
    2bae:	e8bd 87f0 	ldmia.w	sp!, {r4, r5, r6, r7, r8, r9, sl, pc}
    2bb2:	bf00      	nop
    2bb4:	1000f800 	andne	pc, r0, r0, lsl #16
    2bb8:	f44adb6a 			; <UNDEFINED> instruction: 0xf44adb6a
    2bbc:	ffffd4ba 			; <UNDEFINED> instruction: 0xffffd4ba

Disassembly of section .text.balance_thd:

00002bc0 <balance_thd>:
    2bc0:	e92d 41f0 	stmdb	sp!, {r4, r5, r6, r7, r8, lr}
    2bc4:	4ed1      	ldr	r6, [pc, #836]	; (2f0c <balance_thd+0x34c>)
    2bc6:	ed2d 8b06 	vpush	{d8-d10}
    2bca:	eddf 8ad1 	vldr	s17, [pc, #836]	; 2f10 <balance_thd+0x350>
    2bce:	4604      	mov	r4, r0
    2bd0:	4635      	mov	r5, r6
    2bd2:	f8d6 30c8 	ldr.w	r3, [r6, #200]	; 0xc8
    2bd6:	4798      	blx	r3
    2bd8:	b118      	cbz	r0, 2be2 <balance_thd+0x22>
    2bda:	ecbd 8b06 	vpop	{d8-d10}
    2bde:	e8bd 81f0 	ldmia.w	sp!, {r4, r5, r6, r7, r8, pc}
    2be2:	f8d6 30ac 	ldr.w	r3, [r6, #172]	; 0xac
    2be6:	4798      	blx	r3
    2be8:	edd4 7a80 	vldr	s15, [r4, #512]	; 0x200
    2bec:	ed9f 7ac9 	vldr	s14, [pc, #804]	; 2f14 <balance_thd+0x354>
    2bf0:	8ce3      	ldrh	r3, [r4, #38]	; 0x26
    2bf2:	ed84 0a7f 	vstr	s0, [r4, #508]	; 0x1fc
    2bf6:	eef5 7a40 	vcmp.f32	s15, #0.0
    2bfa:	eef1 fa10 	vmrs	APSR_nzcv, fpscr
    2bfe:	bf08      	it	eq
    2c00:	ed84 0a80 	vstreq	s0, [r4, #512]	; 0x200
    2c04:	ed94 8a80 	vldr	s16, [r4, #512]	; 0x200
    2c08:	edd4 7a85 	vldr	s15, [r4, #532]	; 0x214
    2c0c:	ed84 0a80 	vstr	s0, [r4, #512]	; 0x200
    2c10:	ee30 8a48 	vsub.f32	s16, s0, s16
    2c14:	ee67 7aa8 	vmul.f32	s15, s15, s17
    2c18:	ed84 8a81 	vstr	s16, [r4, #516]	; 0x204
    2c1c:	eee8 7a07 	vfma.f32	s15, s16, s14
    2c20:	edc4 7a85 	vstr	s15, [r4, #532]	; 0x214
    2c24:	b1cb      	cbz	r3, 2c5a <balance_thd+0x9a>
    2c26:	ed94 9a83 	vldr	s18, [r4, #524]	; 0x20c
    2c2a:	eeb0 0a49 	vmov.f32	s0, s18
    2c2e:	f001 fb53 	bl	42d8 <roundf>
    2c32:	edd4 7a40 	vldr	s15, [r4, #256]	; 0x100
    2c36:	ee37 0ac0 	vsub.f32	s0, s15, s0
    2c3a:	edd4 7a84 	vldr	s15, [r4, #528]	; 0x210
    2c3e:	ee38 8a40 	vsub.f32	s16, s16, s0
    2c42:	eeb7 0a00 	vmov.f32	s0, #112	; 0x3f800000  1.0
    2c46:	ee30 0a67 	vsub.f32	s0, s0, s15
    2c4a:	ed84 8a82 	vstr	s16, [r4, #520]	; 0x208
    2c4e:	ee20 0a09 	vmul.f32	s0, s0, s18
    2c52:	eea8 0a27 	vfma.f32	s0, s16, s15
    2c56:	ed84 0a83 	vstr	s0, [r4, #524]	; 0x20c
    2c5a:	f8d5 31d4 	ldr.w	r3, [r5, #468]	; 0x1d4
    2c5e:	ed9f 8aae 	vldr	s16, [pc, #696]	; 2f18 <balance_thd+0x358>
    2c62:	4798      	blx	r3
    2c64:	f8d5 31f0 	ldr.w	r3, [r5, #496]	; 0x1f0
    2c68:	ed84 0a5a 	vstr	s0, [r4, #360]	; 0x168
    2c6c:	4798      	blx	r3
    2c6e:	f8d4 3130 	ldr.w	r3, [r4, #304]	; 0x130
    2c72:	f8c4 3134 	str.w	r3, [r4, #308]	; 0x134
    2c76:	f8d4 314c 	ldr.w	r3, [r4, #332]	; 0x14c
    2c7a:	f8c4 3144 	str.w	r3, [r4, #324]	; 0x144
    2c7e:	ed84 0a5b 	vstr	s0, [r4, #364]	; 0x16c
    2c82:	f8d5 327c 	ldr.w	r3, [r5, #636]	; 0x27c
    2c86:	4798      	blx	r3
    2c88:	ee20 0a08 	vmul.f32	s0, s0, s16
    2c8c:	f8d5 3278 	ldr.w	r3, [r5, #632]	; 0x278
    2c90:	ed84 0a4c 	vstr	s0, [r4, #304]	; 0x130
    2c94:	4798      	blx	r3
    2c96:	ee20 0a08 	vmul.f32	s0, s0, s16
    2c9a:	eddf 7aa0 	vldr	s15, [pc, #640]	; 2f1c <balance_thd+0x35c>
    2c9e:	ed84 0a4e 	vstr	s0, [r4, #312]	; 0x138
    2ca2:	eeb0 0ac0 	vabs.f32	s0, s0
    2ca6:	ed84 0a4f 	vstr	s0, [r4, #316]	; 0x13c
    2caa:	ee20 0a27 	vmul.f32	s0, s0, s15
    2cae:	f001 fbab 	bl	4408 <sinf>
    2cb2:	f504 70a4 	add.w	r0, r4, #328	; 0x148
    2cb6:	ed84 0a50 	vstr	s0, [r4, #320]	; 0x140
    2cba:	f8d5 328c 	ldr.w	r3, [r5, #652]	; 0x28c
    2cbe:	4798      	blx	r3
    2cc0:	f8d5 31ac 	ldr.w	r3, [r5, #428]	; 0x1ac
    2cc4:	4798      	blx	r3
    2cc6:	ed84 0a55 	vstr	s0, [r4, #340]	; 0x154
    2cca:	eeb0 0ac0 	vabs.f32	s0, s0
    2cce:	f8d5 31b4 	ldr.w	r3, [r5, #436]	; 0x1b4
    2cd2:	ed84 0a56 	vstr	s0, [r4, #344]	; 0x158
    2cd6:	4798      	blx	r3
    2cd8:	f894 3098 	ldrb.w	r3, [r4, #152]	; 0x98
    2cdc:	ed84 0a57 	vstr	s0, [r4, #348]	; 0x15c
    2ce0:	eef0 7ac0 	vabs.f32	s15, s0
    2ce4:	edc4 7a58 	vstr	s15, [r4, #352]	; 0x160
    2ce8:	b33b      	cbz	r3, 2d3a <balance_thd+0x17a>
    2cea:	ed9f 8a8d 	vldr	s16, [pc, #564]	; 2f20 <balance_thd+0x360>
    2cee:	ed84 0a59 	vstr	s0, [r4, #356]	; 0x164
    2cf2:	2700      	movs	r7, #0
    2cf4:	f8d5 312c 	ldr.w	r3, [r5, #300]	; 0x12c
    2cf8:	4638      	mov	r0, r7
    2cfa:	4798      	blx	r3
    2cfc:	6803      	ldr	r3, [r0, #0]
    2cfe:	2b00      	cmp	r3, #0
    2d00:	4680      	mov	r8, r0
    2d02:	db10      	blt.n	2d26 <balance_thd+0x166>
    2d04:	f8d5 30b0 	ldr.w	r3, [r5, #176]	; 0xb0
    2d08:	6840      	ldr	r0, [r0, #4]
    2d0a:	4798      	blx	r3
    2d0c:	eeb4 0ac8 	vcmpe.f32	s0, s16
    2d10:	eef1 fa10 	vmrs	APSR_nzcv, fpscr
    2d14:	bf41      	itttt	mi
    2d16:	edd4 7a59 	vldrmi	s15, [r4, #356]	; 0x164
    2d1a:	ed98 7a02 	vldrmi	s14, [r8, #8]
    2d1e:	ee77 7a87 	vaddmi.f32	s15, s15, s14
    2d22:	edc4 7a59 	vstrmi	s15, [r4, #356]	; 0x164
    2d26:	2f00      	cmp	r7, #0
    2d28:	d040      	beq.n	2dac <balance_thd+0x1ec>
    2d2a:	edd4 7a59 	vldr	s15, [r4, #356]	; 0x164
    2d2e:	eeb6 7a00 	vmov.f32	s14, #96	; 0x3f000000  0.5
    2d32:	ee67 7a87 	vmul.f32	s15, s15, s14
    2d36:	edc4 7a59 	vstr	s15, [r4, #356]	; 0x164
    2d3a:	f8d5 30e8 	ldr.w	r3, [r5, #232]	; 0xe8
    2d3e:	ed9f 8a7b 	vldr	s16, [pc, #492]	; 2f2c <balance_thd+0x36c>
    2d42:	2007      	movs	r0, #7
    2d44:	4798      	blx	r3
    2d46:	f8d5 30e8 	ldr.w	r3, [r5, #232]	; 0xe8
    2d4a:	ed84 0a5c 	vstr	s0, [r4, #368]	; 0x170
    2d4e:	2008      	movs	r0, #8
    2d50:	4798      	blx	r3
    2d52:	ed94 7a0d 	vldr	s14, [r4, #52]	; 0x34
    2d56:	edd4 7a0e 	vldr	s15, [r4, #56]	; 0x38
    2d5a:	eeb4 0ac8 	vcmpe.f32	s0, s16
    2d5e:	eef1 fa10 	vmrs	APSR_nzcv, fpscr
    2d62:	eeb4 7a48 	vcmp.f32	s14, s16
    2d66:	bf48      	it	mi
    2d68:	eeb0 0a48 	vmovmi.f32	s0, s16
    2d6c:	eef1 fa10 	vmrs	APSR_nzcv, fpscr
    2d70:	ed84 0a5d 	vstr	s0, [r4, #372]	; 0x174
    2d74:	f040 84fd 	bne.w	3772 <balance_thd+0xbb2>
    2d78:	eef4 7a48 	vcmp.f32	s15, s16
    2d7c:	eef1 fa10 	vmrs	APSR_nzcv, fpscr
    2d80:	d11d      	bne.n	2dbe <balance_thd+0x1fe>
    2d82:	2302      	movs	r3, #2
    2d84:	f884 3178 	strb.w	r3, [r4, #376]	; 0x178
    2d88:	f894 3179 	ldrb.w	r3, [r4, #377]	; 0x179
    2d8c:	2b0b      	cmp	r3, #11
    2d8e:	d85e      	bhi.n	2e4e <balance_thd+0x28e>
    2d90:	e8df f013 	tbh	[pc, r3, lsl #1]
    2d94:	00710020 	rsbseq	r0, r1, r0, lsr #32
    2d98:	00710071 	rsbseq	r0, r1, r1, ror r0
    2d9c:	005d0071 	subseq	r0, sp, r1, ror r0
    2da0:	04960496 	ldreq	r0, [r6], #1174	; 0x496
    2da4:	04960496 	ldreq	r0, [r6], #1174	; 0x496
    2da8:	049604e6 	ldreq	r0, [r6], #1254	; 0x4e6
    2dac:	2701      	movs	r7, #1
    2dae:	e7a1      	b.n	2cf4 <balance_thd+0x134>
    2db0:	eeb4 7ae6 	vcmpe.f32	s14, s13
    2db4:	eef1 fa10 	vmrs	APSR_nzcv, fpscr
    2db8:	d4e3      	bmi.n	2d82 <balance_thd+0x1c2>
    2dba:	2300      	movs	r3, #0
    2dbc:	e7e2      	b.n	2d84 <balance_thd+0x1c4>
    2dbe:	eeb4 0ae7 	vcmpe.f32	s0, s15
    2dc2:	eef1 fa10 	vmrs	APSR_nzcv, fpscr
    2dc6:	dcdc      	bgt.n	2d82 <balance_thd+0x1c2>
    2dc8:	e7f7      	b.n	2dba <balance_thd+0x1fa>
    2dca:	eef1 fa10 	vmrs	APSR_nzcv, fpscr
    2dce:	ddf4      	ble.n	2dba <balance_thd+0x1fa>
    2dd0:	f000 bce3 	b.w	379a <balance_thd+0xbda>
    2dd4:	4620      	mov	r0, r4
    2dd6:	f7ff fd4d 	bl	2874 <brake>
    2dda:	f8d5 3274 	ldr.w	r3, [r5, #628]	; 0x274
    2dde:	4798      	blx	r3
    2de0:	b3a8      	cbz	r0, 2e4e <balance_thd+0x28e>
    2de2:	f8d4 3130 	ldr.w	r3, [r4, #304]	; 0x130
    2de6:	f8c4 31a0 	str.w	r3, [r4, #416]	; 0x1a0
    2dea:	f8c4 31a8 	str.w	r3, [r4, #424]	; 0x1a8
    2dee:	2300      	movs	r3, #0
    2df0:	f884 31e0 	strb.w	r3, [r4, #480]	; 0x1e0
    2df4:	230b      	movs	r3, #11
    2df6:	ed84 8a60 	vstr	s16, [r4, #384]	; 0x180
    2dfa:	ed84 8a65 	vstr	s16, [r4, #404]	; 0x194
    2dfe:	ed84 8a63 	vstr	s16, [r4, #396]	; 0x18c
    2e02:	ed84 8a7a 	vstr	s16, [r4, #488]	; 0x1e8
    2e06:	ed84 8a7c 	vstr	s16, [r4, #496]	; 0x1f0
    2e0a:	ed84 8a8b 	vstr	s16, [r4, #556]	; 0x22c
    2e0e:	ed84 8a8d 	vstr	s16, [r4, #564]	; 0x234
    2e12:	ed84 8a69 	vstr	s16, [r4, #420]	; 0x1a4
    2e16:	ed84 8a6b 	vstr	s16, [r4, #428]	; 0x1ac
    2e1a:	ed84 8a6d 	vstr	s16, [r4, #436]	; 0x1b4
    2e1e:	ed84 8a6e 	vstr	s16, [r4, #440]	; 0x1b8
    2e22:	ed84 8a6c 	vstr	s16, [r4, #432]	; 0x1b0
    2e26:	ed84 8a74 	vstr	s16, [r4, #464]	; 0x1d0
    2e2a:	ed84 8a75 	vstr	s16, [r4, #468]	; 0x1d4
    2e2e:	ed84 8a76 	vstr	s16, [r4, #472]	; 0x1d8
    2e32:	ed84 8a77 	vstr	s16, [r4, #476]	; 0x1dc
    2e36:	ed84 8a7e 	vstr	s16, [r4, #504]	; 0x1f8
    2e3a:	ed84 8a7f 	vstr	s16, [r4, #508]	; 0x1fc
    2e3e:	ed84 8a80 	vstr	s16, [r4, #512]	; 0x200
    2e42:	ed84 8a81 	vstr	s16, [r4, #516]	; 0x204
    2e46:	ed84 8a90 	vstr	s16, [r4, #576]	; 0x240
    2e4a:	f884 3179 	strb.w	r3, [r4, #377]	; 0x179
    2e4e:	ed94 0a83 	vldr	s0, [r4, #524]	; 0x20c
    2e52:	f001 fa41 	bl	42d8 <roundf>
    2e56:	edd4 7a40 	vldr	s15, [r4, #256]	; 0x100
    2e5a:	f8d5 30a8 	ldr.w	r3, [r5, #168]	; 0xa8
    2e5e:	ee37 0ac0 	vsub.f32	s0, s15, s0
    2e62:	eddf 7a30 	vldr	s15, [pc, #192]	; 2f24 <balance_thd+0x364>
    2e66:	ee20 0a27 	vmul.f32	s0, s0, s15
    2e6a:	eefc 7ac0 	vcvt.u32.f32	s15, s0
    2e6e:	ee17 0a90 	vmov	r0, s15
    2e72:	4798      	blx	r3
    2e74:	e6ad      	b.n	2bd2 <balance_thd+0x12>
    2e76:	2100      	movs	r1, #0
    2e78:	4620      	mov	r0, r4
    2e7a:	f7ff fb2f 	bl	24dc <check_faults>
    2e7e:	2800      	cmp	r0, #0
    2e80:	d1e5      	bne.n	2e4e <balance_thd+0x28e>
    2e82:	f894 31e0 	ldrb.w	r3, [r4, #480]	; 0x1e0
    2e86:	b953      	cbnz	r3, 2e9e <balance_thd+0x2de>
    2e88:	ed94 7a6a 	vldr	s14, [r4, #424]	; 0x1a8
    2e8c:	edd4 7a69 	vldr	s15, [r4, #420]	; 0x1a4
    2e90:	eeb4 7a67 	vcmp.f32	s14, s15
    2e94:	eef1 fa10 	vmrs	APSR_nzcv, fpscr
    2e98:	d001      	beq.n	2e9e <balance_thd+0x2de>
    2e9a:	2301      	movs	r3, #1
    2e9c:	e01a      	b.n	2ed4 <balance_thd+0x314>
    2e9e:	ed94 7a56 	vldr	s14, [r4, #344]	; 0x158
    2ea2:	edd4 7a15 	vldr	s15, [r4, #84]	; 0x54
    2ea6:	eeb4 7ae7 	vcmpe.f32	s14, s15
    2eaa:	eef1 fa10 	vmrs	APSR_nzcv, fpscr
    2eae:	dd41      	ble.n	2f34 <balance_thd+0x374>
    2eb0:	ed94 7a57 	vldr	s14, [r4, #348]	; 0x15c
    2eb4:	edd4 7a13 	vldr	s15, [r4, #76]	; 0x4c
    2eb8:	eeb5 7ac0 	vcmpe.f32	s14, #0.0
    2ebc:	eef1 fa10 	vmrs	APSR_nzcv, fpscr
    2ec0:	f04f 0301 	mov.w	r3, #1
    2ec4:	bfd8      	it	le
    2ec6:	eef1 7a67 	vnegle.f32	s15, s15
    2eca:	f884 31e0 	strb.w	r3, [r4, #480]	; 0x1e0
    2ece:	edc4 7a69 	vstr	s15, [r4, #420]	; 0x1a4
    2ed2:	2302      	movs	r3, #2
    2ed4:	edd4 7a6a 	vldr	s15, [r4, #424]	; 0x1a8
    2ed8:	edd4 6a69 	vldr	s13, [r4, #420]	; 0x1a4
    2edc:	f884 3179 	strb.w	r3, [r4, #377]	; 0x179
    2ee0:	eef4 7a66 	vcmp.f32	s15, s13
    2ee4:	eef1 fa10 	vmrs	APSR_nzcv, fpscr
    2ee8:	d07e      	beq.n	2fe8 <balance_thd+0x428>
    2eea:	ee36 6ae7 	vsub.f32	s12, s13, s15
    2eee:	f894 31e0 	ldrb.w	r3, [r4, #480]	; 0x1e0
    2ef2:	eef0 5ac6 	vabs.f32	s11, s12
    2ef6:	2b04      	cmp	r3, #4
    2ef8:	f200 82e2 	bhi.w	34c0 <balance_thd+0x900>
    2efc:	e8df f013 	tbh	[pc, r3, lsl #1]
    2f00:	02d4006a 	sbcseq	r0, r4, #106	; 0x6a
    2f04:	02da02d7 	sbcseq	r0, sl, #1879048205	; 0x7000000d
    2f08:	bf0002dd 	svclt	0x000002dd
    2f0c:	1000f800 	andne	pc, r0, r0, lsl #16
    2f10:	3f7851ec 	svccc	0x007851ec
    2f14:	3cf5c28f 	lfmcc	f4, 3, [r5], #572	; 0x23c
    2f18:	42652ee0 	rsbmi	r2, r5, #224, 28	; 0xe00
    2f1c:	3c8efa35 	vstmiacc	lr, {s30-s82}
    2f20:	3dcccccd 	stclcc	12, cr12, [ip, #820]	; 0x334
    2f24:	49742400 	ldmdbmi	r4!, {sl, sp}^
    2f28:	3d4ccccd 	stclcc	12, cr12, [ip, #-820]	; 0xfffffccc
    2f2c:	00000000 	andeq	r0, r0, r0
    2f30:	42c80000 	sbcmi	r0, r8, #0
    2f34:	ed5f 7a04 	vldr	s15, [pc, #-16]	; 2f28 <balance_thd+0x368>
    2f38:	eeb4 7ae7 	vcmpe.f32	s14, s15
    2f3c:	eef1 fa10 	vmrs	APSR_nzcv, fpscr
    2f40:	eeb0 9a67 	vmov.f32	s18, s15
    2f44:	dd1c      	ble.n	2f80 <balance_thd+0x3c0>
    2f46:	f8d5 31e0 	ldr.w	r3, [r5, #480]	; 0x1e0
    2f4a:	4798      	blx	r3
    2f4c:	edd4 7a18 	vldr	s15, [r4, #96]	; 0x60
    2f50:	eeb4 0ae7 	vcmpe.f32	s0, s15
    2f54:	eef1 fa10 	vmrs	APSR_nzcv, fpscr
    2f58:	dd12      	ble.n	2f80 <balance_thd+0x3c0>
    2f5a:	ed94 7a57 	vldr	s14, [r4, #348]	; 0x15c
    2f5e:	edd4 7a16 	vldr	s15, [r4, #88]	; 0x58
    2f62:	eeb5 7ac0 	vcmpe.f32	s14, #0.0
    2f66:	eef1 fa10 	vmrs	APSR_nzcv, fpscr
    2f6a:	f04f 0302 	mov.w	r3, #2
    2f6e:	bfd8      	it	le
    2f70:	eef1 7a67 	vnegle.f32	s15, s15
    2f74:	f884 31e0 	strb.w	r3, [r4, #480]	; 0x1e0
    2f78:	edc4 7a69 	vstr	s15, [r4, #420]	; 0x1a4
    2f7c:	2303      	movs	r3, #3
    2f7e:	e7a9      	b.n	2ed4 <balance_thd+0x314>
    2f80:	edd4 7a56 	vldr	s15, [r4, #344]	; 0x158
    2f84:	eef4 7ac9 	vcmpe.f32	s15, s18
    2f88:	eef1 fa10 	vmrs	APSR_nzcv, fpscr
    2f8c:	dd1c      	ble.n	2fc8 <balance_thd+0x408>
    2f8e:	f8d5 31e0 	ldr.w	r3, [r5, #480]	; 0x1e0
    2f92:	4798      	blx	r3
    2f94:	edd4 7a1b 	vldr	s15, [r4, #108]	; 0x6c
    2f98:	eeb4 0ae7 	vcmpe.f32	s0, s15
    2f9c:	eef1 fa10 	vmrs	APSR_nzcv, fpscr
    2fa0:	d512      	bpl.n	2fc8 <balance_thd+0x408>
    2fa2:	ed94 7a57 	vldr	s14, [r4, #348]	; 0x15c
    2fa6:	edd4 7a19 	vldr	s15, [r4, #100]	; 0x64
    2faa:	eeb5 7ac0 	vcmpe.f32	s14, #0.0
    2fae:	eef1 fa10 	vmrs	APSR_nzcv, fpscr
    2fb2:	f04f 0303 	mov.w	r3, #3
    2fb6:	bfd8      	it	le
    2fb8:	eef1 7a67 	vnegle.f32	s15, s15
    2fbc:	f884 31e0 	strb.w	r3, [r4, #480]	; 0x1e0
    2fc0:	edc4 7a69 	vstr	s15, [r4, #420]	; 0x1a4
    2fc4:	2304      	movs	r3, #4
    2fc6:	e785      	b.n	2ed4 <balance_thd+0x314>
    2fc8:	2304      	movs	r3, #4
    2fca:	f884 31e0 	strb.w	r3, [r4, #480]	; 0x1e0
    2fce:	ed84 8a69 	vstr	s16, [r4, #420]	; 0x1a4
    2fd2:	e762      	b.n	2e9a <balance_thd+0x2da>
    2fd4:	ed94 7a41 	vldr	s14, [r4, #260]	; 0x104
    2fd8:	eef4 5ac7 	vcmpe.f32	s11, s14
    2fdc:	eef1 fa10 	vmrs	APSR_nzcv, fpscr
    2fe0:	f140 8271 	bpl.w	34c6 <balance_thd+0x906>
    2fe4:	edc4 6a6a 	vstr	s13, [r4, #424]	; 0x1a8
    2fe8:	ed94 aa57 	vldr	s20, [r4, #348]	; 0x15c
    2fec:	edd4 7a4a 	vldr	s15, [r4, #296]	; 0x128
    2ff0:	ed94 9a6a 	vldr	s18, [r4, #424]	; 0x1a8
    2ff4:	eeb0 7aca 	vabs.f32	s14, s20
    2ff8:	eeb4 7ae7 	vcmpe.f32	s14, s15
    2ffc:	eef1 fa10 	vmrs	APSR_nzcv, fpscr
    3000:	ed84 9a68 	vstr	s18, [r4, #416]	; 0x1a0
    3004:	eef7 9a00 	vmov.f32	s19, #112	; 0x3f800000  1.0
    3008:	f340 8269 	ble.w	34de <balance_thd+0x91e>
    300c:	ed94 7a20 	vldr	s14, [r4, #128]	; 0x80
    3010:	eeb5 aac0 	vcmpe.f32	s20, #0.0
    3014:	eef1 fa10 	vmrs	APSR_nzcv, fpscr
    3018:	eeff 6a00 	vmov.f32	s13, #240	; 0xbf800000 -1.0
    301c:	eeb0 7ac7 	vabs.f32	s14, s14
    3020:	bf58      	it	pl
    3022:	eef0 6a69 	vmovpl.f32	s13, s19
    3026:	ee27 7a26 	vmul.f32	s14, s14, s13
    302a:	f8b4 3078 	ldrh.w	r3, [r4, #120]	; 0x78
    302e:	ee07 3a90 	vmov	s15, r3
    3032:	eef8 7ae7 	vcvt.f32.s32	s15, s15
    3036:	eeb4 aae7 	vcmpe.f32	s20, s15
    303a:	eef1 fa10 	vmrs	APSR_nzcv, fpscr
    303e:	f340 8253 	ble.w	34e8 <balance_thd+0x928>
    3042:	edd4 7a1d 	vldr	s15, [r4, #116]	; 0x74
    3046:	ee37 7a27 	vadd.f32	s14, s14, s15
    304a:	edd4 6a6b 	vldr	s13, [r4, #428]	; 0x1ac
    304e:	ed94 6a4b 	vldr	s12, [r4, #300]	; 0x12c
    3052:	ee77 7a66 	vsub.f32	s15, s14, s13
    3056:	eef0 5ae7 	vabs.f32	s11, s15
    305a:	eef4 5ac6 	vcmpe.f32	s11, s12
    305e:	eef1 fa10 	vmrs	APSR_nzcv, fpscr
    3062:	f140 8250 	bpl.w	3506 <balance_thd+0x946>
    3066:	ed84 7a6b 	vstr	s14, [r4, #428]	; 0x1ac
    306a:	edd4 7a6b 	vldr	s15, [r4, #428]	; 0x1ac
    306e:	edd4 6a5a 	vldr	s13, [r4, #360]	; 0x168
    3072:	ee39 9a27 	vadd.f32	s18, s18, s15
    3076:	edd4 7a39 	vldr	s15, [r4, #228]	; 0xe4
    307a:	ed84 9a68 	vstr	s18, [r4, #416]	; 0x1a0
    307e:	eef5 7ac0 	vcmpe.f32	s15, #0.0
    3082:	eef1 fa10 	vmrs	APSR_nzcv, fpscr
    3086:	f340 824a 	ble.w	351e <balance_thd+0x95e>
    308a:	ed94 7a6f 	vldr	s14, [r4, #444]	; 0x1bc
    308e:	edd4 7a74 	vldr	s15, [r4, #464]	; 0x1d0
    3092:	ed94 6a70 	vldr	s12, [r4, #448]	; 0x1c0
    3096:	eee7 7a26 	vfma.f32	s15, s14, s13
    309a:	ed94 7a75 	vldr	s14, [r4, #468]	; 0x1d4
    309e:	edc4 7a6c 	vstr	s15, [r4, #432]	; 0x1b0
    30a2:	eea6 7a26 	vfma.f32	s14, s12, s13
    30a6:	ed94 6a72 	vldr	s12, [r4, #456]	; 0x1c8
    30aa:	eea7 7ac6 	vfms.f32	s14, s15, s12
    30ae:	ed94 6a71 	vldr	s12, [r4, #452]	; 0x1c4
    30b2:	ed84 7a74 	vstr	s14, [r4, #464]	; 0x1d0
    30b6:	ed94 7a73 	vldr	s14, [r4, #460]	; 0x1cc
    30ba:	ee27 7a67 	vnmul.f32	s14, s14, s15
    30be:	eea6 7a26 	vfma.f32	s14, s12, s13
    30c2:	ed84 7a75 	vstr	s14, [r4, #468]	; 0x1d4
    30c6:	edd4 aa6c 	vldr	s21, [r4, #432]	; 0x1b0
    30ca:	edd4 7a34 	vldr	s15, [r4, #208]	; 0xd0
    30ce:	ed5f 0a69 	vldr	s1, [pc, #-420]	; 2f2c <balance_thd+0x36c>
    30d2:	eeb0 0aea 	vabs.f32	s0, s21
    30d6:	ee30 0a67 	vsub.f32	s0, s0, s15
    30da:	f001 f84f 	bl	417c <fmaxf>
    30de:	edd4 7a38 	vldr	s15, [r4, #224]	; 0xe0
    30e2:	edd4 0a35 	vldr	s1, [r4, #212]	; 0xd4
    30e6:	ee20 0a27 	vmul.f32	s0, s0, s15
    30ea:	f001 f865 	bl	41b8 <fminf>
    30ee:	eef5 aac0 	vcmpe.f32	s21, #0.0
    30f2:	eef1 fa10 	vmrs	APSR_nzcv, fpscr
    30f6:	eef7 7a00 	vmov.f32	s15, #112	; 0x3f800000  1.0
    30fa:	eebf 7a00 	vmov.f32	s14, #240	; 0xbf800000 -1.0
    30fe:	bf58      	it	pl
    3100:	eeb0 7a67 	vmovpl.f32	s14, s15
    3104:	ee20 0a07 	vmul.f32	s0, s0, s14
    3108:	ed94 7a6e 	vldr	s14, [r4, #440]	; 0x1b8
    310c:	ed84 0a6d 	vstr	s0, [r4, #436]	; 0x1b4
    3110:	ee77 7a40 	vsub.f32	s15, s14, s0
    3114:	eef5 7ac0 	vcmpe.f32	s15, #0.0
    3118:	eef1 fa10 	vmrs	APSR_nzcv, fpscr
    311c:	dd04      	ble.n	3128 <balance_thd+0x568>
    311e:	eeb5 0ac0 	vcmpe.f32	s0, #0.0
    3122:	eef1 fa10 	vmrs	APSR_nzcv, fpscr
    3126:	dc0b      	bgt.n	3140 <balance_thd+0x580>
    3128:	eef5 7ac0 	vcmpe.f32	s15, #0.0
    312c:	eef1 fa10 	vmrs	APSR_nzcv, fpscr
    3130:	f140 81f8 	bpl.w	3524 <balance_thd+0x964>
    3134:	eeb5 0ac0 	vcmpe.f32	s0, #0.0
    3138:	eef1 fa10 	vmrs	APSR_nzcv, fpscr
    313c:	f140 81f2 	bpl.w	3524 <balance_thd+0x964>
    3140:	edd4 7a47 	vldr	s15, [r4, #284]	; 0x11c
    3144:	ee70 6a47 	vsub.f32	s13, s0, s14
    3148:	eeb0 6ae6 	vabs.f32	s12, s13
    314c:	eeb4 6ae7 	vcmpe.f32	s12, s15
    3150:	eef1 fa10 	vmrs	APSR_nzcv, fpscr
    3154:	f140 81e9 	bpl.w	352a <balance_thd+0x96a>
    3158:	ed84 0a6e 	vstr	s0, [r4, #440]	; 0x1b8
    315c:	edd4 7a6e 	vldr	s15, [r4, #440]	; 0x1b8
    3160:	ed94 7a3a 	vldr	s14, [r4, #232]	; 0xe8
    3164:	f8b4 30f4 	ldrh.w	r3, [r4, #244]	; 0xf4
    3168:	edd4 6a58 	vldr	s13, [r4, #352]	; 0x160
    316c:	ee39 9a27 	vadd.f32	s18, s18, s15
    3170:	edd4 7a50 	vldr	s15, [r4, #320]	; 0x140
    3174:	ed84 9a68 	vstr	s18, [r4, #416]	; 0x1a0
    3178:	ee67 7a87 	vmul.f32	s15, s15, s14
    317c:	ed94 7a4f 	vldr	s14, [r4, #316]	; 0x13c
    3180:	edc4 7a76 	vstr	s15, [r4, #472]	; 0x1d8
    3184:	edd4 7a3c 	vldr	s15, [r4, #240]	; 0xf0
    3188:	eeb4 7ae7 	vcmpe.f32	s14, s15
    318c:	ee07 3a90 	vmov	s15, r3
    3190:	eef8 7ae7 	vcvt.f32.s32	s15, s15
    3194:	eef1 fa10 	vmrs	APSR_nzcv, fpscr
    3198:	eef4 6ae7 	vcmpe.f32	s13, s15
    319c:	bf48      	it	mi
    319e:	ed84 8a76 	vstrmi	s16, [r4, #472]	; 0x1d8
    31a2:	eef1 fa10 	vmrs	APSR_nzcv, fpscr
    31a6:	f140 81cc 	bpl.w	3542 <balance_thd+0x982>
    31aa:	ed84 8a76 	vstr	s16, [r4, #472]	; 0x1d8
    31ae:	f8b4 30fe 	ldrh.w	r3, [r4, #254]	; 0xfe
    31b2:	ed1f 5aa1 	vldr	s10, [pc, #-644]	; 2f30 <balance_thd+0x370>
    31b6:	edd4 5a76 	vldr	s11, [r4, #472]	; 0x1d8
    31ba:	edd4 0a3b 	vldr	s1, [r4, #236]	; 0xec
    31be:	ee07 3a10 	vmov	s14, r3
    31c2:	f8b4 30fc 	ldrh.w	r3, [r4, #252]	; 0xfc
    31c6:	eeb8 7ac7 	vcvt.f32.s32	s14, s14
    31ca:	ee06 3a10 	vmov	s12, r3
    31ce:	eef4 6ac7 	vcmpe.f32	s13, s14
    31d2:	eeb8 6ac6 	vcvt.f32.s32	s12, s12
    31d6:	eef1 fa10 	vmrs	APSR_nzcv, fpscr
    31da:	eec6 7a05 	vdiv.f32	s15, s12, s10
    31de:	bf49      	itett	mi
    31e0:	ee86 6a87 	vdivmi.f32	s12, s13, s14
    31e4:	ee77 7aa9 	vaddpl.f32	s15, s15, s19
    31e8:	eee6 9a27 	vfmami.f32	s19, s12, s15
    31ec:	eef0 7a69 	vmovmi.f32	s15, s19
    31f0:	ee67 7aa5 	vmul.f32	s15, s15, s11
    31f4:	edc4 7a76 	vstr	s15, [r4, #472]	; 0x1d8
    31f8:	ed94 0a76 	vldr	s0, [r4, #472]	; 0x1d8
    31fc:	eeb5 0ac0 	vcmpe.f32	s0, #0.0
    3200:	eef1 fa10 	vmrs	APSR_nzcv, fpscr
    3204:	f340 81af 	ble.w	3566 <balance_thd+0x9a6>
    3208:	f000 ffd6 	bl	41b8 <fminf>
    320c:	ed84 0a76 	vstr	s0, [r4, #472]	; 0x1d8
    3210:	ed94 6a76 	vldr	s12, [r4, #472]	; 0x1d8
    3214:	edd4 7a77 	vldr	s15, [r4, #476]	; 0x1dc
    3218:	ed94 7a48 	vldr	s14, [r4, #288]	; 0x120
    321c:	ee76 6a67 	vsub.f32	s13, s12, s15
    3220:	eef0 5ae6 	vabs.f32	s11, s13
    3224:	eef4 5ac7 	vcmpe.f32	s11, s14
    3228:	eef1 fa10 	vmrs	APSR_nzcv, fpscr
    322c:	f140 81a0 	bpl.w	3570 <balance_thd+0x9b0>
    3230:	ed84 6a77 	vstr	s12, [r4, #476]	; 0x1dc
    3234:	edd4 7a77 	vldr	s15, [r4, #476]	; 0x1dc
    3238:	ed94 7a25 	vldr	s14, [r4, #148]	; 0x94
    323c:	ed94 6a4c 	vldr	s12, [r4, #304]	; 0x130
    3240:	ee79 7a27 	vadd.f32	s15, s18, s15
    3244:	eeb5 7a40 	vcmp.f32	s14, #0.0
    3248:	eef1 fa10 	vmrs	APSR_nzcv, fpscr
    324c:	edc4 7a68 	vstr	s15, [r4, #416]	; 0x1a0
    3250:	ee77 7ac6 	vsub.f32	s15, s15, s12
    3254:	d015      	beq.n	3282 <balance_thd+0x6c2>
    3256:	eef4 7ac7 	vcmpe.f32	s15, s14
    325a:	eef1 fa10 	vmrs	APSR_nzcv, fpscr
    325e:	d507      	bpl.n	3270 <balance_thd+0x6b0>
    3260:	eef1 6a47 	vneg.f32	s13, s14
    3264:	eef4 7ae6 	vcmpe.f32	s15, s13
    3268:	eef1 fa10 	vmrs	APSR_nzcv, fpscr
    326c:	f300 818c 	bgt.w	3588 <balance_thd+0x9c8>
    3270:	eef4 7ac7 	vcmpe.f32	s15, s14
    3274:	eef1 fa10 	vmrs	APSR_nzcv, fpscr
    3278:	bfcc      	ite	gt
    327a:	ee77 7ac7 	vsubgt.f32	s15, s15, s14
    327e:	ee77 7a87 	vaddle.f32	s15, s15, s14
    3282:	edd4 5a60 	vldr	s11, [r4, #384]	; 0x180
    3286:	edd4 6a4d 	vldr	s13, [r4, #308]	; 0x134
    328a:	ed94 5a2f 	vldr	s10, [r4, #188]	; 0xbc
    328e:	edc4 7a5f 	vstr	s15, [r4, #380]	; 0x17c
    3292:	ee77 5aa5 	vadd.f32	s11, s15, s11
    3296:	ee76 6ac6 	vsub.f32	s13, s13, s12
    329a:	eeb5 5ac0 	vcmpe.f32	s10, #0.0
    329e:	eef1 fa10 	vmrs	APSR_nzcv, fpscr
    32a2:	edc4 5a60 	vstr	s11, [r4, #384]	; 0x180
    32a6:	edc4 6a61 	vstr	s13, [r4, #388]	; 0x184
    32aa:	ed94 7a04 	vldr	s14, [r4, #16]
    32ae:	dd19      	ble.n	32e4 <balance_thd+0x724>
    32b0:	ee25 6a87 	vmul.f32	s12, s11, s14
    32b4:	eeb0 6ac6 	vabs.f32	s12, s12
    32b8:	eeb4 5ac6 	vcmpe.f32	s10, s12
    32bc:	eef1 fa10 	vmrs	APSR_nzcv, fpscr
    32c0:	d510      	bpl.n	32e4 <balance_thd+0x724>
    32c2:	ee85 6a07 	vdiv.f32	s12, s10, s14
    32c6:	eef5 5ac0 	vcmpe.f32	s11, #0.0
    32ca:	eef1 fa10 	vmrs	APSR_nzcv, fpscr
    32ce:	eeff 5a00 	vmov.f32	s11, #240	; 0xbf800000 -1.0
    32d2:	eef7 4a00 	vmov.f32	s9, #112	; 0x3f800000  1.0
    32d6:	bf58      	it	pl
    32d8:	eef0 5a64 	vmovpl.f32	s11, s9
    32dc:	ee26 6a25 	vmul.f32	s12, s12, s11
    32e0:	ed84 6a60 	vstr	s12, [r4, #384]	; 0x180
    32e4:	f8b4 30c0 	ldrh.w	r3, [r4, #192]	; 0xc0
    32e8:	b15b      	cbz	r3, 3302 <balance_thd+0x742>
    32ea:	ed94 6a8b 	vldr	s12, [r4, #556]	; 0x22c
    32ee:	edd4 5a8c 	vldr	s11, [r4, #560]	; 0x230
    32f2:	ee76 6ac6 	vsub.f32	s13, s13, s12
    32f6:	eea5 6aa6 	vfma.f32	s12, s11, s13
    32fa:	ed84 6a8b 	vstr	s12, [r4, #556]	; 0x22c
    32fe:	ed84 6a61 	vstr	s12, [r4, #388]	; 0x184
    3302:	f8b4 30c2 	ldrh.w	r3, [r4, #194]	; 0xc2
    3306:	b17b      	cbz	r3, 3328 <balance_thd+0x768>
    3308:	ed94 6a61 	vldr	s12, [r4, #388]	; 0x184
    330c:	edd4 6a8d 	vldr	s13, [r4, #564]	; 0x234
    3310:	edd4 4a8e 	vldr	s9, [r4, #568]	; 0x238
    3314:	ee76 5a66 	vsub.f32	s11, s12, s13
    3318:	eee4 6aa5 	vfma.f32	s13, s9, s11
    331c:	edc4 6a8d 	vstr	s13, [r4, #564]	; 0x234
    3320:	ee76 6a66 	vsub.f32	s13, s12, s13
    3324:	edc4 6a61 	vstr	s13, [r4, #388]	; 0x184
    3328:	edd4 6a60 	vldr	s13, [r4, #384]	; 0x180
    332c:	ed94 6a05 	vldr	s12, [r4, #20]
    3330:	7a23      	ldrb	r3, [r4, #8]
    3332:	ee27 7a26 	vmul.f32	s14, s14, s13
    3336:	edd4 6a03 	vldr	s13, [r4, #12]
    333a:	eea6 7aa7 	vfma.f32	s14, s13, s15
    333e:	2b01      	cmp	r3, #1
    3340:	edd4 6a61 	vldr	s13, [r4, #388]	; 0x184
    3344:	eea6 7a26 	vfma.f32	s14, s12, s13
    3348:	ed84 7a67 	vstr	s14, [r4, #412]	; 0x19c
    334c:	d140      	bne.n	33d0 <balance_thd+0x810>
    334e:	edd4 6a53 	vldr	s13, [r4, #332]	; 0x14c
    3352:	ed94 6a63 	vldr	s12, [r4, #396]	; 0x18c
    3356:	edd4 5a51 	vldr	s11, [r4, #324]	; 0x144
    335a:	ee37 7a66 	vsub.f32	s14, s14, s13
    335e:	ee75 5ae6 	vsub.f32	s11, s11, s13
    3362:	ee37 6a06 	vadd.f32	s12, s14, s12
    3366:	eeb5 5ac0 	vcmpe.f32	s10, #0.0
    336a:	eef1 fa10 	vmrs	APSR_nzcv, fpscr
    336e:	ed84 7a62 	vstr	s14, [r4, #392]	; 0x188
    3372:	ed84 6a63 	vstr	s12, [r4, #396]	; 0x18c
    3376:	edc4 5a64 	vstr	s11, [r4, #400]	; 0x190
    337a:	edd4 6a07 	vldr	s13, [r4, #28]
    337e:	dd19      	ble.n	33b4 <balance_thd+0x7f4>
    3380:	ee66 4a26 	vmul.f32	s9, s12, s13
    3384:	eef0 4ae4 	vabs.f32	s9, s9
    3388:	eeb4 5ae4 	vcmpe.f32	s10, s9
    338c:	eef1 fa10 	vmrs	APSR_nzcv, fpscr
    3390:	d510      	bpl.n	33b4 <balance_thd+0x7f4>
    3392:	eec5 4a26 	vdiv.f32	s9, s10, s13
    3396:	eeb5 6ac0 	vcmpe.f32	s12, #0.0
    339a:	eef1 fa10 	vmrs	APSR_nzcv, fpscr
    339e:	eebf 6a00 	vmov.f32	s12, #240	; 0xbf800000 -1.0
    33a2:	eeb7 5a00 	vmov.f32	s10, #112	; 0x3f800000  1.0
    33a6:	bf58      	it	pl
    33a8:	eeb0 6a45 	vmovpl.f32	s12, s10
    33ac:	ee24 6a86 	vmul.f32	s12, s9, s12
    33b0:	ed84 6a63 	vstr	s12, [r4, #396]	; 0x18c
    33b4:	ed94 6a63 	vldr	s12, [r4, #396]	; 0x18c
    33b8:	ee66 6a86 	vmul.f32	s13, s13, s12
    33bc:	ed94 6a06 	vldr	s12, [r4, #24]
    33c0:	eee7 6a06 	vfma.f32	s13, s14, s12
    33c4:	ed94 7a08 	vldr	s14, [r4, #32]
    33c8:	eee5 6a87 	vfma.f32	s13, s11, s14
    33cc:	edc4 6a67 	vstr	s13, [r4, #412]	; 0x19c
    33d0:	ed94 6a31 	vldr	s12, [r4, #196]	; 0xc4
    33d4:	edc4 7a65 	vstr	s15, [r4, #404]	; 0x194
    33d8:	eef0 6ae7 	vabs.f32	s13, s15
    33dc:	eef4 6ac6 	vcmpe.f32	s13, s12
    33e0:	eef1 fa10 	vmrs	APSR_nzcv, fpscr
    33e4:	edc4 6a66 	vstr	s13, [r4, #408]	; 0x198
    33e8:	dd20      	ble.n	342c <balance_thd+0x86c>
    33ea:	ee76 6ac6 	vsub.f32	s13, s13, s12
    33ee:	edd4 5a32 	vldr	s11, [r4, #200]	; 0xc8
    33f2:	ed94 7a67 	vldr	s14, [r4, #412]	; 0x19c
    33f6:	ed94 6a33 	vldr	s12, [r4, #204]	; 0xcc
    33fa:	eef4 6ae5 	vcmpe.f32	s13, s11
    33fe:	eef1 fa10 	vmrs	APSR_nzcv, fpscr
    3402:	eef5 7ac0 	vcmpe.f32	s15, #0.0
    3406:	f140 80c2 	bpl.w	358e <balance_thd+0x9ce>
    340a:	eef1 fa10 	vmrs	APSR_nzcv, fpscr
    340e:	eeff 7a00 	vmov.f32	s15, #240	; 0xbf800000 -1.0
    3412:	eeb7 5a00 	vmov.f32	s10, #112	; 0x3f800000  1.0
    3416:	bf58      	it	pl
    3418:	eef0 7a45 	vmovpl.f32	s15, s10
    341c:	ee67 7a86 	vmul.f32	s15, s15, s12
    3420:	ee86 6aa5 	vdiv.f32	s12, s13, s11
    3424:	eea7 7a86 	vfma.f32	s14, s15, s12
    3428:	ed84 7a67 	vstr	s14, [r4, #412]	; 0x19c
    342c:	f894 3098 	ldrb.w	r3, [r4, #152]	; 0x98
    3430:	2b00      	cmp	r3, #0
    3432:	f000 80da 	beq.w	35ea <balance_thd+0xa2a>
    3436:	ed94 7a56 	vldr	s14, [r4, #344]	; 0x158
    343a:	eddf 7adc 	vldr	s15, [pc, #880]	; 37ac <balance_thd+0xbec>
    343e:	eeb4 7ae7 	vcmpe.f32	s14, s15
    3442:	eef1 fa10 	vmrs	APSR_nzcv, fpscr
    3446:	f140 80ae 	bpl.w	35a6 <balance_thd+0x9e6>
    344a:	ed84 8a7e 	vstr	s16, [r4, #504]	; 0x1f8
    344e:	edd4 7a54 	vldr	s15, [r4, #336]	; 0x150
    3452:	ed94 7a7e 	vldr	s14, [r4, #504]	; 0x1f8
    3456:	ed94 6a28 	vldr	s12, [r4, #160]	; 0xa0
    345a:	edd4 6a7c 	vldr	s13, [r4, #496]	; 0x1f0
    345e:	ee37 7a67 	vsub.f32	s14, s14, s15
    3462:	edd4 7a7a 	vldr	s15, [r4, #488]	; 0x1e8
    3466:	ed84 7a79 	vstr	s14, [r4, #484]	; 0x1e4
    346a:	ee77 7a27 	vadd.f32	s15, s14, s15
    346e:	ee77 6a66 	vsub.f32	s13, s14, s13
    3472:	edc4 7a7a 	vstr	s15, [r4, #488]	; 0x1e8
    3476:	ee67 7a86 	vmul.f32	s15, s15, s12
    347a:	ed94 6a27 	vldr	s12, [r4, #156]	; 0x9c
    347e:	edc4 6a7b 	vstr	s13, [r4, #492]	; 0x1ec
    3482:	eee7 7a06 	vfma.f32	s15, s14, s12
    3486:	ed94 6a29 	vldr	s12, [r4, #164]	; 0xa4
    348a:	eee6 7a86 	vfma.f32	s15, s13, s12
    348e:	edd4 6a2e 	vldr	s13, [r4, #184]	; 0xb8
    3492:	edc4 7a7d 	vstr	s15, [r4, #500]	; 0x1f4
    3496:	eef4 7ae6 	vcmpe.f32	s15, s13
    349a:	eef1 fa10 	vmrs	APSR_nzcv, fpscr
    349e:	f340 809a 	ble.w	35d6 <balance_thd+0xa16>
    34a2:	edc4 6a7d 	vstr	s13, [r4, #500]	; 0x1f4
    34a6:	e09e      	b.n	35e6 <balance_thd+0xa26>
    34a8:	ed94 7a42 	vldr	s14, [r4, #264]	; 0x108
    34ac:	e594      	b.n	2fd8 <balance_thd+0x418>
    34ae:	ed94 7a43 	vldr	s14, [r4, #268]	; 0x10c
    34b2:	e591      	b.n	2fd8 <balance_thd+0x418>
    34b4:	ed94 7a44 	vldr	s14, [r4, #272]	; 0x110
    34b8:	e58e      	b.n	2fd8 <balance_thd+0x418>
    34ba:	ed94 7a45 	vldr	s14, [r4, #276]	; 0x114
    34be:	e58b      	b.n	2fd8 <balance_thd+0x418>
    34c0:	ed9f 7abb 	vldr	s14, [pc, #748]	; 37b0 <balance_thd+0xbf0>
    34c4:	e588      	b.n	2fd8 <balance_thd+0x418>
    34c6:	eeb5 6ac0 	vcmpe.f32	s12, #0.0
    34ca:	eef1 fa10 	vmrs	APSR_nzcv, fpscr
    34ce:	bfcc      	ite	gt
    34d0:	ee77 7a87 	vaddgt.f32	s15, s15, s14
    34d4:	ee77 7ac7 	vsuble.f32	s15, s15, s14
    34d8:	edc4 7a6a 	vstr	s15, [r4, #424]	; 0x1a8
    34dc:	e584      	b.n	2fe8 <balance_thd+0x428>
    34de:	ed94 7a49 	vldr	s14, [r4, #292]	; 0x124
    34e2:	ee2a 7a07 	vmul.f32	s14, s20, s14
    34e6:	e5a0      	b.n	302a <balance_thd+0x46a>
    34e8:	425b      	negs	r3, r3
    34ea:	ee07 3a90 	vmov	s15, r3
    34ee:	eef8 6ae7 	vcvt.f32.s32	s13, s15
    34f2:	eeb4 aae6 	vcmpe.f32	s20, s13
    34f6:	eef1 fa10 	vmrs	APSR_nzcv, fpscr
    34fa:	bf44      	itt	mi
    34fc:	edd4 7a1d 	vldrmi	s15, [r4, #116]	; 0x74
    3500:	ee37 7a67 	vsubmi.f32	s14, s14, s15
    3504:	e5a1      	b.n	304a <balance_thd+0x48a>
    3506:	eef5 7ac0 	vcmpe.f32	s15, #0.0
    350a:	eef1 fa10 	vmrs	APSR_nzcv, fpscr
    350e:	bfcc      	ite	gt
    3510:	ee76 6a86 	vaddgt.f32	s13, s13, s12
    3514:	ee76 6ac6 	vsuble.f32	s13, s13, s12
    3518:	edc4 6a6b 	vstr	s13, [r4, #428]	; 0x1ac
    351c:	e5a5      	b.n	306a <balance_thd+0x4aa>
    351e:	edc4 6a6c 	vstr	s13, [r4, #432]	; 0x1b0
    3522:	e5d0      	b.n	30c6 <balance_thd+0x506>
    3524:	edd4 7a46 	vldr	s15, [r4, #280]	; 0x118
    3528:	e60c      	b.n	3144 <balance_thd+0x584>
    352a:	eef5 6ac0 	vcmpe.f32	s13, #0.0
    352e:	eef1 fa10 	vmrs	APSR_nzcv, fpscr
    3532:	bfcc      	ite	gt
    3534:	ee37 7a27 	vaddgt.f32	s14, s14, s15
    3538:	ee37 7a67 	vsuble.f32	s14, s14, s15
    353c:	ed84 7a6e 	vstr	s14, [r4, #440]	; 0x1b8
    3540:	e60c      	b.n	315c <balance_thd+0x59c>
    3542:	eeb5 aac0 	vcmpe.f32	s20, #0.0
    3546:	edd4 7a76 	vldr	s15, [r4, #472]	; 0x1d8
    354a:	eef1 fa10 	vmrs	APSR_nzcv, fpscr
    354e:	eebf 7a00 	vmov.f32	s14, #240	; 0xbf800000 -1.0
    3552:	eeb7 6a00 	vmov.f32	s12, #112	; 0x3f800000  1.0
    3556:	bf58      	it	pl
    3558:	eeb0 7a46 	vmovpl.f32	s14, s12
    355c:	ee67 7a87 	vmul.f32	s15, s15, s14
    3560:	edc4 7a76 	vstr	s15, [r4, #472]	; 0x1d8
    3564:	e623      	b.n	31ae <balance_thd+0x5ee>
    3566:	eef1 0a60 	vneg.f32	s1, s1
    356a:	f000 fe07 	bl	417c <fmaxf>
    356e:	e64d      	b.n	320c <balance_thd+0x64c>
    3570:	eef5 6ac0 	vcmpe.f32	s13, #0.0
    3574:	eef1 fa10 	vmrs	APSR_nzcv, fpscr
    3578:	bfcc      	ite	gt
    357a:	ee77 7a87 	vaddgt.f32	s15, s15, s14
    357e:	ee77 7ac7 	vsuble.f32	s15, s15, s14
    3582:	edc4 7a77 	vstr	s15, [r4, #476]	; 0x1dc
    3586:	e655      	b.n	3234 <balance_thd+0x674>
    3588:	eddf 7a89 	vldr	s15, [pc, #548]	; 37b0 <balance_thd+0xbf0>
    358c:	e679      	b.n	3282 <balance_thd+0x6c2>
    358e:	eef1 fa10 	vmrs	APSR_nzcv, fpscr
    3592:	eeff 6a00 	vmov.f32	s13, #240	; 0xbf800000 -1.0
    3596:	eef7 7a00 	vmov.f32	s15, #112	; 0x3f800000  1.0
    359a:	bf58      	it	pl
    359c:	eef0 6a67 	vmovpl.f32	s13, s15
    35a0:	eea6 7a86 	vfma.f32	s14, s13, s12
    35a4:	e740      	b.n	3428 <balance_thd+0x868>
    35a6:	ed94 7a4e 	vldr	s14, [r4, #312]	; 0x138
    35aa:	edd4 7a2b 	vldr	s15, [r4, #172]	; 0xac
    35ae:	ed94 6a59 	vldr	s12, [r4, #356]	; 0x164
    35b2:	edd4 6a2a 	vldr	s13, [r4, #168]	; 0xa8
    35b6:	ee67 7a27 	vmul.f32	s15, s14, s15
    35ba:	eeb5 6ac0 	vcmpe.f32	s12, #0.0
    35be:	ee67 7a86 	vmul.f32	s15, s15, s12
    35c2:	eef1 fa10 	vmrs	APSR_nzcv, fpscr
    35c6:	bf4c      	ite	mi
    35c8:	eee6 7ac7 	vfmsmi.f32	s15, s13, s14
    35cc:	eee6 7a87 	vfmapl.f32	s15, s13, s14
    35d0:	edc4 7a7e 	vstr	s15, [r4, #504]	; 0x1f8
    35d4:	e73b      	b.n	344e <balance_thd+0x88e>
    35d6:	eef1 6a66 	vneg.f32	s13, s13
    35da:	eef4 7ae6 	vcmpe.f32	s15, s13
    35de:	eef1 fa10 	vmrs	APSR_nzcv, fpscr
    35e2:	f53f af5e 	bmi.w	34a2 <balance_thd+0x8e2>
    35e6:	ed84 7a7c 	vstr	s14, [r4, #496]	; 0x1f0
    35ea:	ed94 8a67 	vldr	s16, [r4, #412]	; 0x19c
    35ee:	ed94 9a7d 	vldr	s18, [r4, #500]	; 0x1f4
    35f2:	eeb5 8ac0 	vcmpe.f32	s16, #0.0
    35f6:	eef1 fa10 	vmrs	APSR_nzcv, fpscr
    35fa:	dd43      	ble.n	3684 <balance_thd+0xac4>
    35fc:	f8d5 32e0 	ldr.w	r3, [r5, #736]	; 0x2e0
    3600:	2000      	movs	r0, #0
    3602:	4798      	blx	r3
    3604:	eeb4 8ac0 	vcmpe.f32	s16, s0
    3608:	eef1 fa10 	vmrs	APSR_nzcv, fpscr
    360c:	dd3a      	ble.n	3684 <balance_thd+0xac4>
    360e:	f8d5 32e0 	ldr.w	r3, [r5, #736]	; 0x2e0
    3612:	2000      	movs	r0, #0
    3614:	4798      	blx	r3
    3616:	eeb0 8a40 	vmov.f32	s16, s0
    361a:	f8d5 32bc 	ldr.w	r3, [r5, #700]	; 0x2bc
    361e:	4798      	blx	r3
    3620:	f894 3098 	ldrb.w	r3, [r4, #152]	; 0x98
    3624:	2b00      	cmp	r3, #0
    3626:	d03f      	beq.n	36a8 <balance_thd+0xae8>
    3628:	f8d5 3218 	ldr.w	r3, [r5, #536]	; 0x218
    362c:	ed94 0a8f 	vldr	s0, [r4, #572]	; 0x23c
    3630:	eddf 9a60 	vldr	s19, [pc, #384]	; 37b4 <balance_thd+0xbf4>
    3634:	4798      	blx	r3
    3636:	f8d5 3188 	ldr.w	r3, [r5, #392]	; 0x188
    363a:	ee39 0a08 	vadd.f32	s0, s18, s16
    363e:	4798      	blx	r3
    3640:	f04f 0800 	mov.w	r8, #0
    3644:	f8d6 312c 	ldr.w	r3, [r6, #300]	; 0x12c
    3648:	4640      	mov	r0, r8
    364a:	4798      	blx	r3
    364c:	6803      	ldr	r3, [r0, #0]
    364e:	2b00      	cmp	r3, #0
    3650:	4607      	mov	r7, r0
    3652:	db10      	blt.n	3676 <balance_thd+0xab6>
    3654:	f8d6 30b0 	ldr.w	r3, [r6, #176]	; 0xb0
    3658:	6840      	ldr	r0, [r0, #4]
    365a:	4798      	blx	r3
    365c:	eeb4 0ae9 	vcmpe.f32	s0, s19
    3660:	eef1 fa10 	vmrs	APSR_nzcv, fpscr
    3664:	d507      	bpl.n	3676 <balance_thd+0xab6>
    3666:	f8d6 310c 	ldr.w	r3, [r6, #268]	; 0x10c
    366a:	edd4 0a8f 	vldr	s1, [r4, #572]	; 0x23c
    366e:	7838      	ldrb	r0, [r7, #0]
    3670:	ee38 0a49 	vsub.f32	s0, s16, s18
    3674:	4798      	blx	r3
    3676:	f1b8 0f00 	cmp.w	r8, #0
    367a:	f47f abe8 	bne.w	2e4e <balance_thd+0x28e>
    367e:	f04f 0801 	mov.w	r8, #1
    3682:	e7df      	b.n	3644 <balance_thd+0xa84>
    3684:	eeb5 8ac0 	vcmpe.f32	s16, #0.0
    3688:	eef1 fa10 	vmrs	APSR_nzcv, fpscr
    368c:	d5c5      	bpl.n	361a <balance_thd+0xa5a>
    368e:	f8d6 32e0 	ldr.w	r3, [r6, #736]	; 0x2e0
    3692:	2001      	movs	r0, #1
    3694:	4798      	blx	r3
    3696:	eeb4 8ac0 	vcmpe.f32	s16, s0
    369a:	eef1 fa10 	vmrs	APSR_nzcv, fpscr
    369e:	d5bc      	bpl.n	361a <balance_thd+0xa5a>
    36a0:	f8d6 32e0 	ldr.w	r3, [r6, #736]	; 0x2e0
    36a4:	2001      	movs	r0, #1
    36a6:	e7b5      	b.n	3614 <balance_thd+0xa54>
    36a8:	f8d5 3218 	ldr.w	r3, [r5, #536]	; 0x218
    36ac:	ed94 0a8f 	vldr	s0, [r4, #572]	; 0x23c
    36b0:	4798      	blx	r3
    36b2:	f8d5 3188 	ldr.w	r3, [r5, #392]	; 0x188
    36b6:	eeb0 0a48 	vmov.f32	s0, s16
    36ba:	4798      	blx	r3
    36bc:	f7ff bbc7 	b.w	2e4e <balance_thd+0x28e>
    36c0:	edd4 7a4c 	vldr	s15, [r4, #304]	; 0x130
    36c4:	ed94 7a22 	vldr	s14, [r4, #136]	; 0x88
    36c8:	eef0 6ae7 	vabs.f32	s13, s15
    36cc:	eef4 6ac7 	vcmpe.f32	s13, s14
    36d0:	eef1 fa10 	vmrs	APSR_nzcv, fpscr
    36d4:	d548      	bpl.n	3768 <balance_thd+0xba8>
    36d6:	ed94 7a4e 	vldr	s14, [r4, #312]	; 0x138
    36da:	edd4 6a23 	vldr	s13, [r4, #140]	; 0x8c
    36de:	eeb0 7ac7 	vabs.f32	s14, s14
    36e2:	eeb4 7ae6 	vcmpe.f32	s14, s13
    36e6:	eef1 fa10 	vmrs	APSR_nzcv, fpscr
    36ea:	d53d      	bpl.n	3768 <balance_thd+0xba8>
    36ec:	f894 3178 	ldrb.w	r3, [r4, #376]	; 0x178
    36f0:	2b02      	cmp	r3, #2
    36f2:	d139      	bne.n	3768 <balance_thd+0xba8>
    36f4:	2300      	movs	r3, #0
    36f6:	f884 31e0 	strb.w	r3, [r4, #480]	; 0x1e0
    36fa:	2301      	movs	r3, #1
    36fc:	ed84 8a60 	vstr	s16, [r4, #384]	; 0x180
    3700:	ed84 8a65 	vstr	s16, [r4, #404]	; 0x194
    3704:	ed84 8a63 	vstr	s16, [r4, #396]	; 0x18c
    3708:	ed84 8a7a 	vstr	s16, [r4, #488]	; 0x1e8
    370c:	ed84 8a7c 	vstr	s16, [r4, #496]	; 0x1f0
    3710:	ed84 8a8b 	vstr	s16, [r4, #556]	; 0x22c
    3714:	ed84 8a8d 	vstr	s16, [r4, #564]	; 0x234
    3718:	edc4 7a68 	vstr	s15, [r4, #416]	; 0x1a0
    371c:	edc4 7a6a 	vstr	s15, [r4, #424]	; 0x1a8
    3720:	ed84 8a69 	vstr	s16, [r4, #420]	; 0x1a4
    3724:	ed84 8a6b 	vstr	s16, [r4, #428]	; 0x1ac
    3728:	ed84 8a6d 	vstr	s16, [r4, #436]	; 0x1b4
    372c:	ed84 8a6e 	vstr	s16, [r4, #440]	; 0x1b8
    3730:	ed84 8a6c 	vstr	s16, [r4, #432]	; 0x1b0
    3734:	ed84 8a74 	vstr	s16, [r4, #464]	; 0x1d0
    3738:	ed84 8a75 	vstr	s16, [r4, #468]	; 0x1d4
    373c:	ed84 8a76 	vstr	s16, [r4, #472]	; 0x1d8
    3740:	ed84 8a77 	vstr	s16, [r4, #476]	; 0x1dc
    3744:	ed84 8a7e 	vstr	s16, [r4, #504]	; 0x1f8
    3748:	f884 3179 	strb.w	r3, [r4, #377]	; 0x179
    374c:	ed84 8a7f 	vstr	s16, [r4, #508]	; 0x1fc
    3750:	ed84 8a80 	vstr	s16, [r4, #512]	; 0x200
    3754:	ed84 8a81 	vstr	s16, [r4, #516]	; 0x204
    3758:	ed84 8a90 	vstr	s16, [r4, #576]	; 0x240
    375c:	f7ff bb77 	b.w	2e4e <balance_thd+0x28e>
    3760:	2101      	movs	r1, #1
    3762:	4620      	mov	r0, r4
    3764:	f7fe feba 	bl	24dc <check_faults>
    3768:	4620      	mov	r0, r4
    376a:	f7ff f883 	bl	2874 <brake>
    376e:	f7ff bb6e 	b.w	2e4e <balance_thd+0x28e>
    3772:	eef5 7a40 	vcmp.f32	s15, #0.0
    3776:	eef1 fa10 	vmrs	APSR_nzcv, fpscr
    377a:	edd4 6a5c 	vldr	s13, [r4, #368]	; 0x170
    377e:	f43f ab17 	beq.w	2db0 <balance_thd+0x1f0>
    3782:	eeb4 7ae6 	vcmpe.f32	s14, s13
    3786:	eef1 fa10 	vmrs	APSR_nzcv, fpscr
    378a:	eeb4 0ae7 	vcmpe.f32	s0, s15
    378e:	f57f ab1c 	bpl.w	2dca <balance_thd+0x20a>
    3792:	eef1 fa10 	vmrs	APSR_nzcv, fpscr
    3796:	f73f aaf4 	bgt.w	2d82 <balance_thd+0x1c2>
    379a:	f894 3048 	ldrb.w	r3, [r4, #72]	; 0x48
    379e:	2b00      	cmp	r3, #0
    37a0:	f47f aaef 	bne.w	2d82 <balance_thd+0x1c2>
    37a4:	2301      	movs	r3, #1
    37a6:	f7ff baed 	b.w	2d84 <balance_thd+0x1c4>
    37aa:	bf00      	nop
    37ac:	3ca3d70a 	stccc	7, cr13, [r3], #40	; 0x28
    37b0:	00000000 	andeq	r0, r0, r0
    37b4:	3dcccccd 	stclcc	12, cr12, [ip, #820]	; 0x334

Disassembly of section .text.buffer_append_int16:

000037b8 <buffer_append_int16>:
    37b8:	6813      	ldr	r3, [r2, #0]
    37ba:	b510      	push	{r4, lr}
    37bc:	1c5c      	adds	r4, r3, #1
    37be:	6014      	str	r4, [r2, #0]
    37c0:	120c      	asrs	r4, r1, #8
    37c2:	54c4      	strb	r4, [r0, r3]
    37c4:	6813      	ldr	r3, [r2, #0]
    37c6:	1c5c      	adds	r4, r3, #1
    37c8:	6014      	str	r4, [r2, #0]
    37ca:	54c1      	strb	r1, [r0, r3]
    37cc:	bd10      	pop	{r4, pc}

Disassembly of section .text.buffer_append_uint16:

000037ce <buffer_append_uint16>:
    37ce:	6813      	ldr	r3, [r2, #0]
    37d0:	b510      	push	{r4, lr}
    37d2:	1c5c      	adds	r4, r3, #1
    37d4:	6014      	str	r4, [r2, #0]
    37d6:	0a0c      	lsrs	r4, r1, #8
    37d8:	54c4      	strb	r4, [r0, r3]
    37da:	6813      	ldr	r3, [r2, #0]
    37dc:	1c5c      	adds	r4, r3, #1
    37de:	6014      	str	r4, [r2, #0]
    37e0:	54c1      	strb	r1, [r0, r3]
    37e2:	bd10      	pop	{r4, pc}

Disassembly of section .text.buffer_append_uint32:

000037e4 <buffer_append_uint32>:
    37e4:	6813      	ldr	r3, [r2, #0]
    37e6:	b510      	push	{r4, lr}
    37e8:	1c5c      	adds	r4, r3, #1
    37ea:	6014      	str	r4, [r2, #0]
    37ec:	0e0c      	lsrs	r4, r1, #24
    37ee:	54c4      	strb	r4, [r0, r3]
    37f0:	6813      	ldr	r3, [r2, #0]
    37f2:	1c5c      	adds	r4, r3, #1
    37f4:	6014      	str	r4, [r2, #0]
    37f6:	0c0c      	lsrs	r4, r1, #16
    37f8:	54c4      	strb	r4, [r0, r3]
    37fa:	6813      	ldr	r3, [r2, #0]
    37fc:	1c5c      	adds	r4, r3, #1
    37fe:	6014      	str	r4, [r2, #0]
    3800:	0a0c      	lsrs	r4, r1, #8
    3802:	54c4      	strb	r4, [r0, r3]
    3804:	6813      	ldr	r3, [r2, #0]
    3806:	1c5c      	adds	r4, r3, #1
    3808:	6014      	str	r4, [r2, #0]
    380a:	54c1      	strb	r1, [r0, r3]
    380c:	bd10      	pop	{r4, pc}

Disassembly of section .text.buffer_append_float16:

0000380e <buffer_append_float16>:
    380e:	ee60 0a20 	vmul.f32	s1, s0, s1
    3812:	460a      	mov	r2, r1
    3814:	eefd 0ae0 	vcvt.s32.f32	s1, s1
    3818:	ee10 3a90 	vmov	r3, s1
    381c:	b219      	sxth	r1, r3
    381e:	f7ff bfcb 	b.w	37b8 <buffer_append_int16>

Disassembly of section .text.buffer_append_float32_auto:

00003824 <buffer_append_float32_auto>:
    3824:	b573      	push	{r0, r1, r4, r5, r6, lr}
    3826:	eddf 7a22 	vldr	s15, [pc, #136]	; 38b0 <buffer_append_float32_auto+0x8c>
    382a:	eeb0 7ac0 	vabs.f32	s14, s0
    382e:	eeb4 7a67 	vcmp.f32	s14, s15
    3832:	4605      	mov	r5, r0
    3834:	eddf 7a1f 	vldr	s15, [pc, #124]	; 38b4 <buffer_append_float32_auto+0x90>
    3838:	a802      	add	r0, sp, #8
    383a:	eef1 fa10 	vmrs	APSR_nzcv, fpscr
    383e:	f04f 0400 	mov.w	r4, #0
    3842:	bf48      	it	mi
    3844:	eeb0 0a67 	vmovmi.f32	s0, s15
    3848:	f840 4d04 	str.w	r4, [r0, #-4]!
    384c:	460e      	mov	r6, r1
    384e:	f000 fced 	bl	422c <frexpf>
    3852:	eeb6 7a00 	vmov.f32	s14, #96	; 0x3f000000  0.5
    3856:	eef0 7ac0 	vabs.f32	s15, s0
    385a:	eef4 7ac7 	vcmpe.f32	s15, s14
    385e:	eef1 fa10 	vmrs	APSR_nzcv, fpscr
    3862:	db0e      	blt.n	3882 <buffer_append_float32_auto+0x5e>
    3864:	ee77 7ac7 	vsub.f32	s15, s15, s14
    3868:	ed9f 7a13 	vldr	s14, [pc, #76]	; 38b8 <buffer_append_float32_auto+0x94>
    386c:	9b01      	ldr	r3, [sp, #4]
    386e:	ee77 7aa7 	vadd.f32	s15, s15, s15
    3872:	337e      	adds	r3, #126	; 0x7e
    3874:	ee67 7a87 	vmul.f32	s15, s15, s14
    3878:	9301      	str	r3, [sp, #4]
    387a:	eefc 7ae7 	vcvt.u32.f32	s15, s15
    387e:	ee17 4a90 	vmov	r4, s15
    3882:	9801      	ldr	r0, [sp, #4]
    3884:	05c0      	lsls	r0, r0, #23
    3886:	f000 40ff 	and.w	r0, r0, #2139095040	; 0x7f800000
    388a:	f3c4 0416 	ubfx	r4, r4, #0, #23
    388e:	eeb5 0ac0 	vcmpe.f32	s0, #0.0
    3892:	ea40 0104 	orr.w	r1, r0, r4
    3896:	eef1 fa10 	vmrs	APSR_nzcv, fpscr
    389a:	bf48      	it	mi
    389c:	f041 4100 	orrmi.w	r1, r1, #2147483648	; 0x80000000
    38a0:	4632      	mov	r2, r6
    38a2:	4628      	mov	r0, r5
    38a4:	b002      	add	sp, #8
    38a6:	e8bd 4070 	ldmia.w	sp!, {r4, r5, r6, lr}
    38aa:	f7ff bf9b 	b.w	37e4 <buffer_append_uint32>
    38ae:	bf00      	nop
    38b0:	00a355e6 	adceq	r5, r3, r6, ror #11
    38b4:	00000000 	andeq	r0, r0, r0
    38b8:	4b000000 	blmi	38c0 <buffer_get_int16+0x4>

Disassembly of section .text.buffer_get_int16:

000038bc <buffer_get_int16>:
    38bc:	680b      	ldr	r3, [r1, #0]
    38be:	5cc2      	ldrb	r2, [r0, r3]
    38c0:	4418      	add	r0, r3
    38c2:	3302      	adds	r3, #2
    38c4:	7840      	ldrb	r0, [r0, #1]
    38c6:	600b      	str	r3, [r1, #0]
    38c8:	ea40 2002 	orr.w	r0, r0, r2, lsl #8
    38cc:	b200      	sxth	r0, r0
    38ce:	4770      	bx	lr

Disassembly of section .text.buffer_get_uint16:

000038d0 <buffer_get_uint16>:
    38d0:	b510      	push	{r4, lr}
    38d2:	680b      	ldr	r3, [r1, #0]
    38d4:	5cc4      	ldrb	r4, [r0, r3]
    38d6:	4418      	add	r0, r3
    38d8:	3302      	adds	r3, #2
    38da:	7840      	ldrb	r0, [r0, #1]
    38dc:	600b      	str	r3, [r1, #0]
    38de:	ea40 2004 	orr.w	r0, r0, r4, lsl #8
    38e2:	bd10      	pop	{r4, pc}

Disassembly of section .text.buffer_get_uint32:

000038e4 <buffer_get_uint32>:
    38e4:	b530      	push	{r4, r5, lr}
    38e6:	680c      	ldr	r4, [r1, #0]
    38e8:	1903      	adds	r3, r0, r4
    38ea:	5d05      	ldrb	r5, [r0, r4]
    38ec:	78da      	ldrb	r2, [r3, #3]
    38ee:	7858      	ldrb	r0, [r3, #1]
    38f0:	ea42 6205 	orr.w	r2, r2, r5, lsl #24
    38f4:	ea42 4200 	orr.w	r2, r2, r0, lsl #16
    38f8:	7898      	ldrb	r0, [r3, #2]
    38fa:	3404      	adds	r4, #4
    38fc:	600c      	str	r4, [r1, #0]
    38fe:	ea42 2000 	orr.w	r0, r2, r0, lsl #8
    3902:	bd30      	pop	{r4, r5, pc}

Disassembly of section .text.buffer_get_float16:

00003904 <buffer_get_float16>:
    3904:	b508      	push	{r3, lr}
    3906:	ed2d 8b02 	vpush	{d8}
    390a:	eeb0 8a40 	vmov.f32	s16, s0
    390e:	f7ff ffd5 	bl	38bc <buffer_get_int16>
    3912:	ee07 0a90 	vmov	s15, r0
    3916:	eeb8 0ae7 	vcvt.f32.s32	s0, s15
    391a:	ee80 0a08 	vdiv.f32	s0, s0, s16
    391e:	ecbd 8b02 	vpop	{d8}
    3922:	bd08      	pop	{r3, pc}

Disassembly of section .text.buffer_get_float32_auto:

00003924 <buffer_get_float32_auto>:
    3924:	b508      	push	{r3, lr}
    3926:	f7ff ffdd 	bl	38e4 <buffer_get_uint32>
    392a:	f3c0 53c7 	ubfx	r3, r0, #23, #8
    392e:	f3c0 0216 	ubfx	r2, r0, #0, #23
    3932:	b903      	cbnz	r3, 3936 <buffer_get_float32_auto+0x12>
    3934:	b19a      	cbz	r2, 395e <buffer_get_float32_auto+0x3a>
    3936:	ee07 2a90 	vmov	s15, r2
    393a:	ed9f 7a0a 	vldr	s14, [pc, #40]	; 3964 <buffer_get_float32_auto+0x40>
    393e:	eef8 7ae7 	vcvt.f32.s32	s15, s15
    3942:	eeb6 0a00 	vmov.f32	s0, #96	; 0x3f000000  0.5
    3946:	eea7 0a87 	vfma.f32	s0, s15, s14
    394a:	3b7e      	subs	r3, #126	; 0x7e
    394c:	2800      	cmp	r0, #0
    394e:	bfb8      	it	lt
    3950:	eeb1 0a40 	vneglt.f32	s0, s0
    3954:	4618      	mov	r0, r3
    3956:	e8bd 4008 	ldmia.w	sp!, {r3, lr}
    395a:	f000 bc91 	b.w	4280 <ldexpf>
    395e:	ed9f 0a02 	vldr	s0, [pc, #8]	; 3968 <buffer_get_float32_auto+0x44>
    3962:	e7f3      	b.n	394c <buffer_get_float32_auto+0x28>
    3964:	33800000 	orrcc	r0, r0, #0
    3968:	00000000 	andeq	r0, r0, r0

Disassembly of section .text.confparser_serialize_balance_config:

0000396c <confparser_serialize_balance_config>:
    396c:	b570      	push	{r4, r5, r6, lr}
    396e:	ed2d 8b02 	vpush	{d8}
    3972:	b082      	sub	sp, #8
    3974:	ae02      	add	r6, sp, #8
    3976:	2300      	movs	r3, #0
    3978:	f846 3d04 	str.w	r3, [r6, #-4]!
    397c:	460d      	mov	r5, r1
    397e:	4632      	mov	r2, r6
    3980:	49d5      	ldr	r1, [pc, #852]	; (3cd8 <confparser_serialize_balance_config+0x36c>)
    3982:	ed9f 8ad6 	vldr	s16, [pc, #856]	; 3cdc <confparser_serialize_balance_config+0x370>
    3986:	4604      	mov	r4, r0
    3988:	f7ff ff2c 	bl	37e4 <buffer_append_uint32>
    398c:	9b01      	ldr	r3, [sp, #4]
    398e:	1c5a      	adds	r2, r3, #1
    3990:	9201      	str	r2, [sp, #4]
    3992:	782a      	ldrb	r2, [r5, #0]
    3994:	54e2      	strb	r2, [r4, r3]
    3996:	4631      	mov	r1, r6
    3998:	ed95 0a01 	vldr	s0, [r5, #4]
    399c:	4620      	mov	r0, r4
    399e:	f7ff ff41 	bl	3824 <buffer_append_float32_auto>
    39a2:	4631      	mov	r1, r6
    39a4:	ed95 0a02 	vldr	s0, [r5, #8]
    39a8:	4620      	mov	r0, r4
    39aa:	f7ff ff3b 	bl	3824 <buffer_append_float32_auto>
    39ae:	4631      	mov	r1, r6
    39b0:	ed95 0a03 	vldr	s0, [r5, #12]
    39b4:	4620      	mov	r0, r4
    39b6:	f7ff ff35 	bl	3824 <buffer_append_float32_auto>
    39ba:	4631      	mov	r1, r6
    39bc:	ed95 0a04 	vldr	s0, [r5, #16]
    39c0:	4620      	mov	r0, r4
    39c2:	f7ff ff2f 	bl	3824 <buffer_append_float32_auto>
    39c6:	4631      	mov	r1, r6
    39c8:	ed95 0a05 	vldr	s0, [r5, #20]
    39cc:	4620      	mov	r0, r4
    39ce:	f7ff ff29 	bl	3824 <buffer_append_float32_auto>
    39d2:	ed95 0a06 	vldr	s0, [r5, #24]
    39d6:	4631      	mov	r1, r6
    39d8:	4620      	mov	r0, r4
    39da:	f7ff ff23 	bl	3824 <buffer_append_float32_auto>
    39de:	4632      	mov	r2, r6
    39e0:	8ba9      	ldrh	r1, [r5, #28]
    39e2:	4620      	mov	r0, r4
    39e4:	f7ff fef3 	bl	37ce <buffer_append_uint16>
    39e8:	4632      	mov	r2, r6
    39ea:	8be9      	ldrh	r1, [r5, #30]
    39ec:	4620      	mov	r0, r4
    39ee:	f7ff feee 	bl	37ce <buffer_append_uint16>
    39f2:	4631      	mov	r1, r6
    39f4:	ed95 0a08 	vldr	s0, [r5, #32]
    39f8:	4620      	mov	r0, r4
    39fa:	f7ff ff13 	bl	3824 <buffer_append_float32_auto>
    39fe:	4631      	mov	r1, r6
    3a00:	ed95 0a09 	vldr	s0, [r5, #36]	; 0x24
    3a04:	4620      	mov	r0, r4
    3a06:	f7ff ff0d 	bl	3824 <buffer_append_float32_auto>
    3a0a:	4631      	mov	r1, r6
    3a0c:	ed95 0a0a 	vldr	s0, [r5, #40]	; 0x28
    3a10:	4620      	mov	r0, r4
    3a12:	f7ff ff07 	bl	3824 <buffer_append_float32_auto>
    3a16:	4631      	mov	r1, r6
    3a18:	ed95 0a0b 	vldr	s0, [r5, #44]	; 0x2c
    3a1c:	4620      	mov	r0, r4
    3a1e:	f7ff ff01 	bl	3824 <buffer_append_float32_auto>
    3a22:	ed95 0a0c 	vldr	s0, [r5, #48]	; 0x30
    3a26:	4631      	mov	r1, r6
    3a28:	4620      	mov	r0, r4
    3a2a:	f7ff fefb 	bl	3824 <buffer_append_float32_auto>
    3a2e:	4632      	mov	r2, r6
    3a30:	8ea9      	ldrh	r1, [r5, #52]	; 0x34
    3a32:	4620      	mov	r0, r4
    3a34:	f7ff fecb 	bl	37ce <buffer_append_uint16>
    3a38:	4632      	mov	r2, r6
    3a3a:	8ee9      	ldrh	r1, [r5, #54]	; 0x36
    3a3c:	4620      	mov	r0, r4
    3a3e:	f7ff fec6 	bl	37ce <buffer_append_uint16>
    3a42:	4632      	mov	r2, r6
    3a44:	8f29      	ldrh	r1, [r5, #56]	; 0x38
    3a46:	4620      	mov	r0, r4
    3a48:	f7ff fec1 	bl	37ce <buffer_append_uint16>
    3a4c:	4632      	mov	r2, r6
    3a4e:	8f69      	ldrh	r1, [r5, #58]	; 0x3a
    3a50:	4620      	mov	r0, r4
    3a52:	f7ff febc 	bl	37ce <buffer_append_uint16>
    3a56:	4632      	mov	r2, r6
    3a58:	8fa9      	ldrh	r1, [r5, #60]	; 0x3c
    3a5a:	4620      	mov	r0, r4
    3a5c:	f7ff feb7 	bl	37ce <buffer_append_uint16>
    3a60:	4632      	mov	r2, r6
    3a62:	8fe9      	ldrh	r1, [r5, #62]	; 0x3e
    3a64:	4620      	mov	r0, r4
    3a66:	f7ff feb2 	bl	37ce <buffer_append_uint16>
    3a6a:	9b01      	ldr	r3, [sp, #4]
    3a6c:	f895 2040 	ldrb.w	r2, [r5, #64]	; 0x40
    3a70:	54e2      	strb	r2, [r4, r3]
    3a72:	1c59      	adds	r1, r3, #1
    3a74:	9101      	str	r1, [sp, #4]
    3a76:	eef0 0a48 	vmov.f32	s1, s16
    3a7a:	4631      	mov	r1, r6
    3a7c:	ed95 0a11 	vldr	s0, [r5, #68]	; 0x44
    3a80:	4620      	mov	r0, r4
    3a82:	f7ff fec4 	bl	380e <buffer_append_float16>
    3a86:	4631      	mov	r1, r6
    3a88:	eef0 0a48 	vmov.f32	s1, s16
    3a8c:	ed95 0a12 	vldr	s0, [r5, #72]	; 0x48
    3a90:	4620      	mov	r0, r4
    3a92:	f7ff febc 	bl	380e <buffer_append_float16>
    3a96:	4631      	mov	r1, r6
    3a98:	ed95 0a13 	vldr	s0, [r5, #76]	; 0x4c
    3a9c:	eddf 0a90 	vldr	s1, [pc, #576]	; 3ce0 <confparser_serialize_balance_config+0x374>
    3aa0:	4620      	mov	r0, r4
    3aa2:	f7ff feb4 	bl	380e <buffer_append_float16>
    3aa6:	4631      	mov	r1, r6
    3aa8:	eef0 0a48 	vmov.f32	s1, s16
    3aac:	ed95 0a14 	vldr	s0, [r5, #80]	; 0x50
    3ab0:	4620      	mov	r0, r4
    3ab2:	f7ff feac 	bl	380e <buffer_append_float16>
    3ab6:	eef0 0a48 	vmov.f32	s1, s16
    3aba:	4631      	mov	r1, r6
    3abc:	ed95 0a15 	vldr	s0, [r5, #84]	; 0x54
    3ac0:	4620      	mov	r0, r4
    3ac2:	f7ff fea4 	bl	380e <buffer_append_float16>
    3ac6:	4631      	mov	r1, r6
    3ac8:	ed95 0a16 	vldr	s0, [r5, #88]	; 0x58
    3acc:	4620      	mov	r0, r4
    3ace:	f7ff fea9 	bl	3824 <buffer_append_float32_auto>
    3ad2:	4631      	mov	r1, r6
    3ad4:	eef0 0a48 	vmov.f32	s1, s16
    3ad8:	ed95 0a17 	vldr	s0, [r5, #92]	; 0x5c
    3adc:	4620      	mov	r0, r4
    3ade:	f7ff fe96 	bl	380e <buffer_append_float16>
    3ae2:	eef0 0a48 	vmov.f32	s1, s16
    3ae6:	4631      	mov	r1, r6
    3ae8:	ed95 0a18 	vldr	s0, [r5, #96]	; 0x60
    3aec:	4620      	mov	r0, r4
    3aee:	f7ff fe8e 	bl	380e <buffer_append_float16>
    3af2:	4631      	mov	r1, r6
    3af4:	ed95 0a19 	vldr	s0, [r5, #100]	; 0x64
    3af8:	4620      	mov	r0, r4
    3afa:	f7ff fe93 	bl	3824 <buffer_append_float32_auto>
    3afe:	eef0 0a48 	vmov.f32	s1, s16
    3b02:	4631      	mov	r1, r6
    3b04:	ed95 0a1a 	vldr	s0, [r5, #104]	; 0x68
    3b08:	4620      	mov	r0, r4
    3b0a:	f7ff fe80 	bl	380e <buffer_append_float16>
    3b0e:	ed95 0a1b 	vldr	s0, [r5, #108]	; 0x6c
    3b12:	4631      	mov	r1, r6
    3b14:	4620      	mov	r0, r4
    3b16:	f7ff fe85 	bl	3824 <buffer_append_float32_auto>
    3b1a:	4632      	mov	r2, r6
    3b1c:	f8b5 1070 	ldrh.w	r1, [r5, #112]	; 0x70
    3b20:	4620      	mov	r0, r4
    3b22:	f7ff fe54 	bl	37ce <buffer_append_uint16>
    3b26:	4631      	mov	r1, r6
    3b28:	ed95 0a1d 	vldr	s0, [r5, #116]	; 0x74
    3b2c:	4620      	mov	r0, r4
    3b2e:	f7ff fe79 	bl	3824 <buffer_append_float32_auto>
    3b32:	4631      	mov	r1, r6
    3b34:	ed95 0a1e 	vldr	s0, [r5, #120]	; 0x78
    3b38:	4620      	mov	r0, r4
    3b3a:	f7ff fe73 	bl	3824 <buffer_append_float32_auto>
    3b3e:	eef0 0a48 	vmov.f32	s1, s16
    3b42:	4631      	mov	r1, r6
    3b44:	ed95 0a1f 	vldr	s0, [r5, #124]	; 0x7c
    3b48:	4620      	mov	r0, r4
    3b4a:	f7ff fe60 	bl	380e <buffer_append_float16>
    3b4e:	4631      	mov	r1, r6
    3b50:	ed95 0a20 	vldr	s0, [r5, #128]	; 0x80
    3b54:	4620      	mov	r0, r4
    3b56:	f7ff fe65 	bl	3824 <buffer_append_float32_auto>
    3b5a:	4631      	mov	r1, r6
    3b5c:	ed95 0a21 	vldr	s0, [r5, #132]	; 0x84
    3b60:	4620      	mov	r0, r4
    3b62:	f7ff fe5f 	bl	3824 <buffer_append_float32_auto>
    3b66:	4631      	mov	r1, r6
    3b68:	ed95 0a22 	vldr	s0, [r5, #136]	; 0x88
    3b6c:	4620      	mov	r0, r4
    3b6e:	f7ff fe59 	bl	3824 <buffer_append_float32_auto>
    3b72:	4631      	mov	r1, r6
    3b74:	ed95 0a23 	vldr	s0, [r5, #140]	; 0x8c
    3b78:	4620      	mov	r0, r4
    3b7a:	f7ff fe53 	bl	3824 <buffer_append_float32_auto>
    3b7e:	9b01      	ldr	r3, [sp, #4]
    3b80:	f895 2090 	ldrb.w	r2, [r5, #144]	; 0x90
    3b84:	54e2      	strb	r2, [r4, r3]
    3b86:	1c59      	adds	r1, r3, #1
    3b88:	9101      	str	r1, [sp, #4]
    3b8a:	ed95 0a25 	vldr	s0, [r5, #148]	; 0x94
    3b8e:	4631      	mov	r1, r6
    3b90:	4620      	mov	r0, r4
    3b92:	f7ff fe47 	bl	3824 <buffer_append_float32_auto>
    3b96:	4631      	mov	r1, r6
    3b98:	ed95 0a26 	vldr	s0, [r5, #152]	; 0x98
    3b9c:	4620      	mov	r0, r4
    3b9e:	f7ff fe41 	bl	3824 <buffer_append_float32_auto>
    3ba2:	4631      	mov	r1, r6
    3ba4:	ed95 0a27 	vldr	s0, [r5, #156]	; 0x9c
    3ba8:	4620      	mov	r0, r4
    3baa:	f7ff fe3b 	bl	3824 <buffer_append_float32_auto>
    3bae:	4631      	mov	r1, r6
    3bb0:	ed95 0a28 	vldr	s0, [r5, #160]	; 0xa0
    3bb4:	4620      	mov	r0, r4
    3bb6:	f7ff fe35 	bl	3824 <buffer_append_float32_auto>
    3bba:	4631      	mov	r1, r6
    3bbc:	ed95 0a29 	vldr	s0, [r5, #164]	; 0xa4
    3bc0:	4620      	mov	r0, r4
    3bc2:	f7ff fe2f 	bl	3824 <buffer_append_float32_auto>
    3bc6:	ed95 0a2a 	vldr	s0, [r5, #168]	; 0xa8
    3bca:	4631      	mov	r1, r6
    3bcc:	4620      	mov	r0, r4
    3bce:	f7ff fe29 	bl	3824 <buffer_append_float32_auto>
    3bd2:	4632      	mov	r2, r6
    3bd4:	f8b5 10ac 	ldrh.w	r1, [r5, #172]	; 0xac
    3bd8:	4620      	mov	r0, r4
    3bda:	f7ff fdf8 	bl	37ce <buffer_append_uint16>
    3bde:	4631      	mov	r1, r6
    3be0:	ed95 0a2c 	vldr	s0, [r5, #176]	; 0xb0
    3be4:	4620      	mov	r0, r4
    3be6:	f7ff fe1d 	bl	3824 <buffer_append_float32_auto>
    3bea:	ed95 0a2d 	vldr	s0, [r5, #180]	; 0xb4
    3bee:	4631      	mov	r1, r6
    3bf0:	4620      	mov	r0, r4
    3bf2:	f7ff fe17 	bl	3824 <buffer_append_float32_auto>
    3bf6:	4632      	mov	r2, r6
    3bf8:	f8b5 10b8 	ldrh.w	r1, [r5, #184]	; 0xb8
    3bfc:	4620      	mov	r0, r4
    3bfe:	f7ff fde6 	bl	37ce <buffer_append_uint16>
    3c02:	4632      	mov	r2, r6
    3c04:	f8b5 10ba 	ldrh.w	r1, [r5, #186]	; 0xba
    3c08:	4620      	mov	r0, r4
    3c0a:	f7ff fde0 	bl	37ce <buffer_append_uint16>
    3c0e:	4631      	mov	r1, r6
    3c10:	ed95 0a2f 	vldr	s0, [r5, #188]	; 0xbc
    3c14:	4620      	mov	r0, r4
    3c16:	f7ff fe05 	bl	3824 <buffer_append_float32_auto>
    3c1a:	4631      	mov	r1, r6
    3c1c:	ed95 0a30 	vldr	s0, [r5, #192]	; 0xc0
    3c20:	4620      	mov	r0, r4
    3c22:	f7ff fdff 	bl	3824 <buffer_append_float32_auto>
    3c26:	4631      	mov	r1, r6
    3c28:	ed95 0a31 	vldr	s0, [r5, #196]	; 0xc4
    3c2c:	4620      	mov	r0, r4
    3c2e:	f7ff fdf9 	bl	3824 <buffer_append_float32_auto>
    3c32:	4631      	mov	r1, r6
    3c34:	ed95 0a32 	vldr	s0, [r5, #200]	; 0xc8
    3c38:	4620      	mov	r0, r4
    3c3a:	f7ff fdf3 	bl	3824 <buffer_append_float32_auto>
    3c3e:	4631      	mov	r1, r6
    3c40:	ed95 0a33 	vldr	s0, [r5, #204]	; 0xcc
    3c44:	4620      	mov	r0, r4
    3c46:	f7ff fded 	bl	3824 <buffer_append_float32_auto>
    3c4a:	4631      	mov	r1, r6
    3c4c:	ed95 0a34 	vldr	s0, [r5, #208]	; 0xd0
    3c50:	4620      	mov	r0, r4
    3c52:	f7ff fde7 	bl	3824 <buffer_append_float32_auto>
    3c56:	4631      	mov	r1, r6
    3c58:	ed95 0a35 	vldr	s0, [r5, #212]	; 0xd4
    3c5c:	4620      	mov	r0, r4
    3c5e:	f7ff fde1 	bl	3824 <buffer_append_float32_auto>
    3c62:	4631      	mov	r1, r6
    3c64:	ed95 0a36 	vldr	s0, [r5, #216]	; 0xd8
    3c68:	4620      	mov	r0, r4
    3c6a:	f7ff fddb 	bl	3824 <buffer_append_float32_auto>
    3c6e:	4631      	mov	r1, r6
    3c70:	ed95 0a37 	vldr	s0, [r5, #220]	; 0xdc
    3c74:	4620      	mov	r0, r4
    3c76:	f7ff fdd5 	bl	3824 <buffer_append_float32_auto>
    3c7a:	4631      	mov	r1, r6
    3c7c:	ed95 0a38 	vldr	s0, [r5, #224]	; 0xe0
    3c80:	4620      	mov	r0, r4
    3c82:	f7ff fdcf 	bl	3824 <buffer_append_float32_auto>
    3c86:	4631      	mov	r1, r6
    3c88:	ed95 0a39 	vldr	s0, [r5, #228]	; 0xe4
    3c8c:	4620      	mov	r0, r4
    3c8e:	f7ff fdc9 	bl	3824 <buffer_append_float32_auto>
    3c92:	ed95 0a3a 	vldr	s0, [r5, #232]	; 0xe8
    3c96:	4631      	mov	r1, r6
    3c98:	4620      	mov	r0, r4
    3c9a:	f7ff fdc3 	bl	3824 <buffer_append_float32_auto>
    3c9e:	4632      	mov	r2, r6
    3ca0:	f8b5 10ec 	ldrh.w	r1, [r5, #236]	; 0xec
    3ca4:	4620      	mov	r0, r4
    3ca6:	f7ff fd92 	bl	37ce <buffer_append_uint16>
    3caa:	ed95 0a3c 	vldr	s0, [r5, #240]	; 0xf0
    3cae:	4631      	mov	r1, r6
    3cb0:	4620      	mov	r0, r4
    3cb2:	f7ff fdb7 	bl	3824 <buffer_append_float32_auto>
    3cb6:	4632      	mov	r2, r6
    3cb8:	f8b5 10f4 	ldrh.w	r1, [r5, #244]	; 0xf4
    3cbc:	4620      	mov	r0, r4
    3cbe:	f7ff fd86 	bl	37ce <buffer_append_uint16>
    3cc2:	4620      	mov	r0, r4
    3cc4:	4632      	mov	r2, r6
    3cc6:	f8b5 10f6 	ldrh.w	r1, [r5, #246]	; 0xf6
    3cca:	f7ff fd80 	bl	37ce <buffer_append_uint16>
    3cce:	9801      	ldr	r0, [sp, #4]
    3cd0:	b002      	add	sp, #8
    3cd2:	ecbd 8b02 	vpop	{d8}
    3cd6:	bd70      	pop	{r4, r5, r6, pc}
    3cd8:	f44adb6a 			; <UNDEFINED> instruction: 0xf44adb6a
    3cdc:	42c80000 	sbcmi	r0, r8, #0
    3ce0:	447a0000 	ldrbtmi	r0, [sl], #-0

Disassembly of section .text.confparser_deserialize_balance_config:

00003ce4 <confparser_deserialize_balance_config>:
    3ce4:	b5f7      	push	{r0, r1, r2, r4, r5, r6, r7, lr}
    3ce6:	ae02      	add	r6, sp, #8
    3ce8:	2700      	movs	r7, #0
    3cea:	f846 7d04 	str.w	r7, [r6, #-4]!
    3cee:	460c      	mov	r4, r1
    3cf0:	4631      	mov	r1, r6
    3cf2:	4605      	mov	r5, r0
    3cf4:	f7ff fdf6 	bl	38e4 <buffer_get_uint32>
    3cf8:	4bd7      	ldr	r3, [pc, #860]	; (4058 <confparser_deserialize_balance_config+0x374>)
    3cfa:	4298      	cmp	r0, r3
    3cfc:	f040 81aa 	bne.w	4054 <confparser_deserialize_balance_config+0x370>
    3d00:	9b01      	ldr	r3, [sp, #4]
    3d02:	1c5a      	adds	r2, r3, #1
    3d04:	5ceb      	ldrb	r3, [r5, r3]
    3d06:	7023      	strb	r3, [r4, #0]
    3d08:	4631      	mov	r1, r6
    3d0a:	4628      	mov	r0, r5
    3d0c:	9201      	str	r2, [sp, #4]
    3d0e:	f7ff fe09 	bl	3924 <buffer_get_float32_auto>
    3d12:	4631      	mov	r1, r6
    3d14:	4628      	mov	r0, r5
    3d16:	ed84 0a01 	vstr	s0, [r4, #4]
    3d1a:	f7ff fe03 	bl	3924 <buffer_get_float32_auto>
    3d1e:	4631      	mov	r1, r6
    3d20:	4628      	mov	r0, r5
    3d22:	ed84 0a02 	vstr	s0, [r4, #8]
    3d26:	f7ff fdfd 	bl	3924 <buffer_get_float32_auto>
    3d2a:	4631      	mov	r1, r6
    3d2c:	4628      	mov	r0, r5
    3d2e:	ed84 0a03 	vstr	s0, [r4, #12]
    3d32:	f7ff fdf7 	bl	3924 <buffer_get_float32_auto>
    3d36:	4631      	mov	r1, r6
    3d38:	4628      	mov	r0, r5
    3d3a:	ed84 0a04 	vstr	s0, [r4, #16]
    3d3e:	f7ff fdf1 	bl	3924 <buffer_get_float32_auto>
    3d42:	4631      	mov	r1, r6
    3d44:	4628      	mov	r0, r5
    3d46:	ed84 0a05 	vstr	s0, [r4, #20]
    3d4a:	f7ff fdeb 	bl	3924 <buffer_get_float32_auto>
    3d4e:	4631      	mov	r1, r6
    3d50:	ed84 0a06 	vstr	s0, [r4, #24]
    3d54:	4628      	mov	r0, r5
    3d56:	f7ff fdbb 	bl	38d0 <buffer_get_uint16>
    3d5a:	4631      	mov	r1, r6
    3d5c:	83a0      	strh	r0, [r4, #28]
    3d5e:	4628      	mov	r0, r5
    3d60:	f7ff fdb6 	bl	38d0 <buffer_get_uint16>
    3d64:	4631      	mov	r1, r6
    3d66:	83e0      	strh	r0, [r4, #30]
    3d68:	4628      	mov	r0, r5
    3d6a:	f7ff fddb 	bl	3924 <buffer_get_float32_auto>
    3d6e:	4631      	mov	r1, r6
    3d70:	4628      	mov	r0, r5
    3d72:	ed84 0a08 	vstr	s0, [r4, #32]
    3d76:	f7ff fdd5 	bl	3924 <buffer_get_float32_auto>
    3d7a:	4631      	mov	r1, r6
    3d7c:	4628      	mov	r0, r5
    3d7e:	ed84 0a09 	vstr	s0, [r4, #36]	; 0x24
    3d82:	f7ff fdcf 	bl	3924 <buffer_get_float32_auto>
    3d86:	4631      	mov	r1, r6
    3d88:	4628      	mov	r0, r5
    3d8a:	ed84 0a0a 	vstr	s0, [r4, #40]	; 0x28
    3d8e:	f7ff fdc9 	bl	3924 <buffer_get_float32_auto>
    3d92:	4631      	mov	r1, r6
    3d94:	4628      	mov	r0, r5
    3d96:	ed84 0a0b 	vstr	s0, [r4, #44]	; 0x2c
    3d9a:	f7ff fdc3 	bl	3924 <buffer_get_float32_auto>
    3d9e:	4631      	mov	r1, r6
    3da0:	ed84 0a0c 	vstr	s0, [r4, #48]	; 0x30
    3da4:	4628      	mov	r0, r5
    3da6:	f7ff fd93 	bl	38d0 <buffer_get_uint16>
    3daa:	4631      	mov	r1, r6
    3dac:	86a0      	strh	r0, [r4, #52]	; 0x34
    3dae:	4628      	mov	r0, r5
    3db0:	f7ff fd8e 	bl	38d0 <buffer_get_uint16>
    3db4:	4631      	mov	r1, r6
    3db6:	86e0      	strh	r0, [r4, #54]	; 0x36
    3db8:	4628      	mov	r0, r5
    3dba:	f7ff fd89 	bl	38d0 <buffer_get_uint16>
    3dbe:	4631      	mov	r1, r6
    3dc0:	8720      	strh	r0, [r4, #56]	; 0x38
    3dc2:	4628      	mov	r0, r5
    3dc4:	f7ff fd84 	bl	38d0 <buffer_get_uint16>
    3dc8:	4631      	mov	r1, r6
    3dca:	8760      	strh	r0, [r4, #58]	; 0x3a
    3dcc:	4628      	mov	r0, r5
    3dce:	f7ff fd7f 	bl	38d0 <buffer_get_uint16>
    3dd2:	4631      	mov	r1, r6
    3dd4:	87a0      	strh	r0, [r4, #60]	; 0x3c
    3dd6:	4628      	mov	r0, r5
    3dd8:	f7ff fd7a 	bl	38d0 <buffer_get_uint16>
    3ddc:	9b01      	ldr	r3, [sp, #4]
    3dde:	87e0      	strh	r0, [r4, #62]	; 0x3e
    3de0:	1c5a      	adds	r2, r3, #1
    3de2:	5ceb      	ldrb	r3, [r5, r3]
    3de4:	ed9f 0a9d 	vldr	s0, [pc, #628]	; 405c <confparser_deserialize_balance_config+0x378>
    3de8:	9201      	str	r2, [sp, #4]
    3dea:	1bdb      	subs	r3, r3, r7
    3dec:	bf18      	it	ne
    3dee:	2301      	movne	r3, #1
    3df0:	f884 3040 	strb.w	r3, [r4, #64]	; 0x40
    3df4:	4631      	mov	r1, r6
    3df6:	4628      	mov	r0, r5
    3df8:	f7ff fd84 	bl	3904 <buffer_get_float16>
    3dfc:	4631      	mov	r1, r6
    3dfe:	ed84 0a11 	vstr	s0, [r4, #68]	; 0x44
    3e02:	4628      	mov	r0, r5
    3e04:	ed9f 0a95 	vldr	s0, [pc, #596]	; 405c <confparser_deserialize_balance_config+0x378>
    3e08:	f7ff fd7c 	bl	3904 <buffer_get_float16>
    3e0c:	4631      	mov	r1, r6
    3e0e:	ed84 0a12 	vstr	s0, [r4, #72]	; 0x48
    3e12:	4628      	mov	r0, r5
    3e14:	ed9f 0a92 	vldr	s0, [pc, #584]	; 4060 <confparser_deserialize_balance_config+0x37c>
    3e18:	f7ff fd74 	bl	3904 <buffer_get_float16>
    3e1c:	4631      	mov	r1, r6
    3e1e:	ed84 0a13 	vstr	s0, [r4, #76]	; 0x4c
    3e22:	4628      	mov	r0, r5
    3e24:	ed9f 0a8d 	vldr	s0, [pc, #564]	; 405c <confparser_deserialize_balance_config+0x378>
    3e28:	f7ff fd6c 	bl	3904 <buffer_get_float16>
    3e2c:	4631      	mov	r1, r6
    3e2e:	ed84 0a14 	vstr	s0, [r4, #80]	; 0x50
    3e32:	4628      	mov	r0, r5
    3e34:	ed9f 0a89 	vldr	s0, [pc, #548]	; 405c <confparser_deserialize_balance_config+0x378>
    3e38:	f7ff fd64 	bl	3904 <buffer_get_float16>
    3e3c:	4631      	mov	r1, r6
    3e3e:	4628      	mov	r0, r5
    3e40:	ed84 0a15 	vstr	s0, [r4, #84]	; 0x54
    3e44:	f7ff fd6e 	bl	3924 <buffer_get_float32_auto>
    3e48:	4631      	mov	r1, r6
    3e4a:	ed84 0a16 	vstr	s0, [r4, #88]	; 0x58
    3e4e:	4628      	mov	r0, r5
    3e50:	ed9f 0a82 	vldr	s0, [pc, #520]	; 405c <confparser_deserialize_balance_config+0x378>
    3e54:	f7ff fd56 	bl	3904 <buffer_get_float16>
    3e58:	4631      	mov	r1, r6
    3e5a:	ed84 0a17 	vstr	s0, [r4, #92]	; 0x5c
    3e5e:	4628      	mov	r0, r5
    3e60:	ed9f 0a7e 	vldr	s0, [pc, #504]	; 405c <confparser_deserialize_balance_config+0x378>
    3e64:	f7ff fd4e 	bl	3904 <buffer_get_float16>
    3e68:	4631      	mov	r1, r6
    3e6a:	4628      	mov	r0, r5
    3e6c:	ed84 0a18 	vstr	s0, [r4, #96]	; 0x60
    3e70:	f7ff fd58 	bl	3924 <buffer_get_float32_auto>
    3e74:	4631      	mov	r1, r6
    3e76:	ed84 0a19 	vstr	s0, [r4, #100]	; 0x64
    3e7a:	4628      	mov	r0, r5
    3e7c:	ed9f 0a77 	vldr	s0, [pc, #476]	; 405c <confparser_deserialize_balance_config+0x378>
    3e80:	f7ff fd40 	bl	3904 <buffer_get_float16>
    3e84:	4631      	mov	r1, r6
    3e86:	4628      	mov	r0, r5
    3e88:	ed84 0a1a 	vstr	s0, [r4, #104]	; 0x68
    3e8c:	f7ff fd4a 	bl	3924 <buffer_get_float32_auto>
    3e90:	4631      	mov	r1, r6
    3e92:	ed84 0a1b 	vstr	s0, [r4, #108]	; 0x6c
    3e96:	4628      	mov	r0, r5
    3e98:	f7ff fd1a 	bl	38d0 <buffer_get_uint16>
    3e9c:	4631      	mov	r1, r6
    3e9e:	f8a4 0070 	strh.w	r0, [r4, #112]	; 0x70
    3ea2:	4628      	mov	r0, r5
    3ea4:	f7ff fd3e 	bl	3924 <buffer_get_float32_auto>
    3ea8:	4631      	mov	r1, r6
    3eaa:	4628      	mov	r0, r5
    3eac:	ed84 0a1d 	vstr	s0, [r4, #116]	; 0x74
    3eb0:	f7ff fd38 	bl	3924 <buffer_get_float32_auto>
    3eb4:	4631      	mov	r1, r6
    3eb6:	ed84 0a1e 	vstr	s0, [r4, #120]	; 0x78
    3eba:	4628      	mov	r0, r5
    3ebc:	ed9f 0a67 	vldr	s0, [pc, #412]	; 405c <confparser_deserialize_balance_config+0x378>
    3ec0:	f7ff fd20 	bl	3904 <buffer_get_float16>
    3ec4:	4631      	mov	r1, r6
    3ec6:	4628      	mov	r0, r5
    3ec8:	ed84 0a1f 	vstr	s0, [r4, #124]	; 0x7c
    3ecc:	f7ff fd2a 	bl	3924 <buffer_get_float32_auto>
    3ed0:	4631      	mov	r1, r6
    3ed2:	4628      	mov	r0, r5
    3ed4:	ed84 0a20 	vstr	s0, [r4, #128]	; 0x80
    3ed8:	f7ff fd24 	bl	3924 <buffer_get_float32_auto>
    3edc:	4631      	mov	r1, r6
    3ede:	4628      	mov	r0, r5
    3ee0:	ed84 0a21 	vstr	s0, [r4, #132]	; 0x84
    3ee4:	f7ff fd1e 	bl	3924 <buffer_get_float32_auto>
    3ee8:	4631      	mov	r1, r6
    3eea:	4628      	mov	r0, r5
    3eec:	ed84 0a22 	vstr	s0, [r4, #136]	; 0x88
    3ef0:	f7ff fd18 	bl	3924 <buffer_get_float32_auto>
    3ef4:	9b01      	ldr	r3, [sp, #4]
    3ef6:	ed84 0a23 	vstr	s0, [r4, #140]	; 0x8c
    3efa:	1c5a      	adds	r2, r3, #1
    3efc:	5ceb      	ldrb	r3, [r5, r3]
    3efe:	9201      	str	r2, [sp, #4]
    3f00:	1bdb      	subs	r3, r3, r7
    3f02:	bf18      	it	ne
    3f04:	2301      	movne	r3, #1
    3f06:	f884 3090 	strb.w	r3, [r4, #144]	; 0x90
    3f0a:	4631      	mov	r1, r6
    3f0c:	4628      	mov	r0, r5
    3f0e:	f7ff fd09 	bl	3924 <buffer_get_float32_auto>
    3f12:	4631      	mov	r1, r6
    3f14:	4628      	mov	r0, r5
    3f16:	ed84 0a25 	vstr	s0, [r4, #148]	; 0x94
    3f1a:	f7ff fd03 	bl	3924 <buffer_get_float32_auto>
    3f1e:	4631      	mov	r1, r6
    3f20:	4628      	mov	r0, r5
    3f22:	ed84 0a26 	vstr	s0, [r4, #152]	; 0x98
    3f26:	f7ff fcfd 	bl	3924 <buffer_get_float32_auto>
    3f2a:	4631      	mov	r1, r6
    3f2c:	4628      	mov	r0, r5
    3f2e:	ed84 0a27 	vstr	s0, [r4, #156]	; 0x9c
    3f32:	f7ff fcf7 	bl	3924 <buffer_get_float32_auto>
    3f36:	4631      	mov	r1, r6
    3f38:	4628      	mov	r0, r5
    3f3a:	ed84 0a28 	vstr	s0, [r4, #160]	; 0xa0
    3f3e:	f7ff fcf1 	bl	3924 <buffer_get_float32_auto>
    3f42:	4631      	mov	r1, r6
    3f44:	4628      	mov	r0, r5
    3f46:	ed84 0a29 	vstr	s0, [r4, #164]	; 0xa4
    3f4a:	f7ff fceb 	bl	3924 <buffer_get_float32_auto>
    3f4e:	4631      	mov	r1, r6
    3f50:	ed84 0a2a 	vstr	s0, [r4, #168]	; 0xa8
    3f54:	4628      	mov	r0, r5
    3f56:	f7ff fcbb 	bl	38d0 <buffer_get_uint16>
    3f5a:	4631      	mov	r1, r6
    3f5c:	f8a4 00ac 	strh.w	r0, [r4, #172]	; 0xac
    3f60:	4628      	mov	r0, r5
    3f62:	f7ff fcdf 	bl	3924 <buffer_get_float32_auto>
    3f66:	4631      	mov	r1, r6
    3f68:	4628      	mov	r0, r5
    3f6a:	ed84 0a2c 	vstr	s0, [r4, #176]	; 0xb0
    3f6e:	f7ff fcd9 	bl	3924 <buffer_get_float32_auto>
    3f72:	4631      	mov	r1, r6
    3f74:	ed84 0a2d 	vstr	s0, [r4, #180]	; 0xb4
    3f78:	4628      	mov	r0, r5
    3f7a:	f7ff fca9 	bl	38d0 <buffer_get_uint16>
    3f7e:	4631      	mov	r1, r6
    3f80:	f8a4 00b8 	strh.w	r0, [r4, #184]	; 0xb8
    3f84:	4628      	mov	r0, r5
    3f86:	f7ff fca3 	bl	38d0 <buffer_get_uint16>
    3f8a:	4631      	mov	r1, r6
    3f8c:	f8a4 00ba 	strh.w	r0, [r4, #186]	; 0xba
    3f90:	4628      	mov	r0, r5
    3f92:	f7ff fcc7 	bl	3924 <buffer_get_float32_auto>
    3f96:	4631      	mov	r1, r6
    3f98:	4628      	mov	r0, r5
    3f9a:	ed84 0a2f 	vstr	s0, [r4, #188]	; 0xbc
    3f9e:	f7ff fcc1 	bl	3924 <buffer_get_float32_auto>
    3fa2:	4631      	mov	r1, r6
    3fa4:	4628      	mov	r0, r5
    3fa6:	ed84 0a30 	vstr	s0, [r4, #192]	; 0xc0
    3faa:	f7ff fcbb 	bl	3924 <buffer_get_float32_auto>
    3fae:	4631      	mov	r1, r6
    3fb0:	4628      	mov	r0, r5
    3fb2:	ed84 0a31 	vstr	s0, [r4, #196]	; 0xc4
    3fb6:	f7ff fcb5 	bl	3924 <buffer_get_float32_auto>
    3fba:	4631      	mov	r1, r6
    3fbc:	4628      	mov	r0, r5
    3fbe:	ed84 0a32 	vstr	s0, [r4, #200]	; 0xc8
    3fc2:	f7ff fcaf 	bl	3924 <buffer_get_float32_auto>
    3fc6:	4631      	mov	r1, r6
    3fc8:	4628      	mov	r0, r5
    3fca:	ed84 0a33 	vstr	s0, [r4, #204]	; 0xcc
    3fce:	f7ff fca9 	bl	3924 <buffer_get_float32_auto>
    3fd2:	4631      	mov	r1, r6
    3fd4:	4628      	mov	r0, r5
    3fd6:	ed84 0a34 	vstr	s0, [r4, #208]	; 0xd0
    3fda:	f7ff fca3 	bl	3924 <buffer_get_float32_auto>
    3fde:	4631      	mov	r1, r6
    3fe0:	4628      	mov	r0, r5
    3fe2:	ed84 0a35 	vstr	s0, [r4, #212]	; 0xd4
    3fe6:	f7ff fc9d 	bl	3924 <buffer_get_float32_auto>
    3fea:	4631      	mov	r1, r6
    3fec:	4628      	mov	r0, r5
    3fee:	ed84 0a36 	vstr	s0, [r4, #216]	; 0xd8
    3ff2:	f7ff fc97 	bl	3924 <buffer_get_float32_auto>
    3ff6:	4631      	mov	r1, r6
    3ff8:	4628      	mov	r0, r5
    3ffa:	ed84 0a37 	vstr	s0, [r4, #220]	; 0xdc
    3ffe:	f7ff fc91 	bl	3924 <buffer_get_float32_auto>
    4002:	4631      	mov	r1, r6
    4004:	4628      	mov	r0, r5
    4006:	ed84 0a38 	vstr	s0, [r4, #224]	; 0xe0
    400a:	f7ff fc8b 	bl	3924 <buffer_get_float32_auto>
    400e:	4631      	mov	r1, r6
    4010:	4628      	mov	r0, r5
    4012:	ed84 0a39 	vstr	s0, [r4, #228]	; 0xe4
    4016:	f7ff fc85 	bl	3924 <buffer_get_float32_auto>
    401a:	4631      	mov	r1, r6
    401c:	ed84 0a3a 	vstr	s0, [r4, #232]	; 0xe8
    4020:	4628      	mov	r0, r5
    4022:	f7ff fc55 	bl	38d0 <buffer_get_uint16>
    4026:	4631      	mov	r1, r6
    4028:	f8a4 00ec 	strh.w	r0, [r4, #236]	; 0xec
    402c:	4628      	mov	r0, r5
    402e:	f7ff fc79 	bl	3924 <buffer_get_float32_auto>
    4032:	4631      	mov	r1, r6
    4034:	ed84 0a3c 	vstr	s0, [r4, #240]	; 0xf0
    4038:	4628      	mov	r0, r5
    403a:	f7ff fc49 	bl	38d0 <buffer_get_uint16>
    403e:	4631      	mov	r1, r6
    4040:	f8a4 00f4 	strh.w	r0, [r4, #244]	; 0xf4
    4044:	4628      	mov	r0, r5
    4046:	f7ff fc43 	bl	38d0 <buffer_get_uint16>
    404a:	f8a4 00f6 	strh.w	r0, [r4, #246]	; 0xf6
    404e:	2001      	movs	r0, #1
    4050:	b003      	add	sp, #12
    4052:	bdf0      	pop	{r4, r5, r6, r7, pc}
    4054:	4638      	mov	r0, r7
    4056:	e7fb      	b.n	4050 <confparser_deserialize_balance_config+0x36c>
    4058:	f44adb6a 			; <UNDEFINED> instruction: 0xf44adb6a
    405c:	42c80000 	sbcmi	r0, r8, #0
    4060:	447a0000 	ldrbtmi	r0, [sl], #-0

Disassembly of section .text.confparser_set_defaults_balance_config:

00004064 <confparser_set_defaults_balance_config>:
    4064:	4a3e      	ldr	r2, [pc, #248]	; (4160 <confparser_set_defaults_balance_config+0xfc>)
    4066:	f44f 717a 	mov.w	r1, #1000	; 0x3e8
    406a:	e9c0 1207 	strd	r1, r2, [r0, #28]
    406e:	f502 0214 	add.w	r2, r2, #9699328	; 0x940000
    4072:	6242      	str	r2, [r0, #36]	; 0x24
    4074:	4a3b      	ldr	r2, [pc, #236]	; (4164 <confparser_set_defaults_balance_config+0x100>)
    4076:	493c      	ldr	r1, [pc, #240]	; (4168 <confparser_set_defaults_balance_config+0x104>)
    4078:	6441      	str	r1, [r0, #68]	; 0x44
    407a:	2300      	movs	r3, #0
    407c:	b530      	push	{r4, r5, lr}
    407e:	e9c0 230a 	strd	r2, r3, [r0, #40]	; 0x28
    4082:	f04f 547d 	mov.w	r4, #1061158912	; 0x3f400000
    4086:	f04f 727a 	mov.w	r2, #65536000	; 0x3e80000
    408a:	6501      	str	r1, [r0, #80]	; 0x50
    408c:	65c1      	str	r1, [r0, #92]	; 0x5c
    408e:	f04f 517e 	mov.w	r1, #1065353216	; 0x3f800000
    4092:	63c2      	str	r2, [r0, #60]	; 0x3c
    4094:	64c4      	str	r4, [r0, #76]	; 0x4c
    4096:	4a35      	ldr	r2, [pc, #212]	; (416c <confparser_set_defaults_balance_config+0x108>)
    4098:	4c35      	ldr	r4, [pc, #212]	; (4170 <confparser_set_defaults_balance_config+0x10c>)
    409a:	6681      	str	r1, [r0, #104]	; 0x68
    409c:	f44f 71fa 	mov.w	r1, #500	; 0x1f4
    40a0:	6482      	str	r2, [r0, #72]	; 0x48
    40a2:	6542      	str	r2, [r0, #84]	; 0x54
    40a4:	6584      	str	r4, [r0, #88]	; 0x58
    40a6:	6602      	str	r2, [r0, #96]	; 0x60
    40a8:	f8a0 1070 	strh.w	r1, [r0, #112]	; 0x70
    40ac:	2200      	movs	r2, #0
    40ae:	4931      	ldr	r1, [pc, #196]	; (4174 <confparser_set_defaults_balance_config+0x110>)
    40b0:	4c2b      	ldr	r4, [pc, #172]	; (4160 <confparser_set_defaults_balance_config+0xfc>)
    40b2:	4d2e      	ldr	r5, [pc, #184]	; (416c <confparser_set_defaults_balance_config+0x108>)
    40b4:	7003      	strb	r3, [r0, #0]
    40b6:	e9c0 3301 	strd	r3, r3, [r0, #4]
    40ba:	e9c0 3303 	strd	r3, r3, [r0, #12]
    40be:	e9c0 3305 	strd	r3, r3, [r0, #20]
    40c2:	e9c0 330c 	strd	r3, r3, [r0, #48]	; 0x30
    40c6:	6383      	str	r3, [r0, #56]	; 0x38
    40c8:	f880 3040 	strb.w	r3, [r0, #64]	; 0x40
    40cc:	6642      	str	r2, [r0, #100]	; 0x64
    40ce:	66c2      	str	r2, [r0, #108]	; 0x6c
    40d0:	6742      	str	r2, [r0, #116]	; 0x74
    40d2:	6782      	str	r2, [r0, #120]	; 0x78
    40d4:	67c1      	str	r1, [r0, #124]	; 0x7c
    40d6:	f8c0 4080 	str.w	r4, [r0, #128]	; 0x80
    40da:	f04f 4482 	mov.w	r4, #1090519040	; 0x41000000
    40de:	e9c0 5335 	strd	r5, r3, [r0, #212]	; 0xd4
    40e2:	f8c0 4084 	str.w	r4, [r0, #132]	; 0x84
    40e6:	f8c0 208c 	str.w	r2, [r0, #140]	; 0x8c
    40ea:	4c23      	ldr	r4, [pc, #140]	; (4178 <confparser_set_defaults_balance_config+0x114>)
    40ec:	f8c0 2094 	str.w	r2, [r0, #148]	; 0x94
    40f0:	f8c0 2098 	str.w	r2, [r0, #152]	; 0x98
    40f4:	f8c0 209c 	str.w	r2, [r0, #156]	; 0x9c
    40f8:	f8c0 20a0 	str.w	r2, [r0, #160]	; 0xa0
    40fc:	f8c0 20a4 	str.w	r2, [r0, #164]	; 0xa4
    4100:	f8c0 20a8 	str.w	r2, [r0, #168]	; 0xa8
    4104:	f04f 4580 	mov.w	r5, #1073741824	; 0x40000000
    4108:	220a      	movs	r2, #10
    410a:	f8c0 4088 	str.w	r4, [r0, #136]	; 0x88
    410e:	f880 3090 	strb.w	r3, [r0, #144]	; 0x90
    4112:	f04f 547e 	mov.w	r4, #1065353216	; 0x3f800000
    4116:	f8a0 20ac 	strh.w	r2, [r0, #172]	; 0xac
    411a:	e9c0 332c 	strd	r3, r3, [r0, #176]	; 0xb0
    411e:	f04f 4282 	mov.w	r2, #1090519040	; 0x41000000
    4122:	f8c0 30b8 	str.w	r3, [r0, #184]	; 0xb8
    4126:	f8c0 30c4 	str.w	r3, [r0, #196]	; 0xc4
    412a:	e9c0 5337 	strd	r5, r3, [r0, #220]	; 0xdc
    412e:	2364      	movs	r3, #100	; 0x64
    4130:	e9c0 242f 	strd	r2, r4, [r0, #188]	; 0xbc
    4134:	f8a0 30ec 	strh.w	r3, [r0, #236]	; 0xec
    4138:	f502 1200 	add.w	r2, r2, #2097152	; 0x200000
    413c:	2314      	movs	r3, #20
    413e:	f8c0 20c8 	str.w	r2, [r0, #200]	; 0xc8
    4142:	f8a0 30f4 	strh.w	r3, [r0, #244]	; 0xf4
    4146:	f5a2 0200 	sub.w	r2, r2, #8388608	; 0x800000
    414a:	f644 6320 	movw	r3, #20000	; 0x4e20
    414e:	e9c0 2233 	strd	r2, r2, [r0, #204]	; 0xcc
    4152:	e9c0 2439 	strd	r2, r4, [r0, #228]	; 0xe4
    4156:	f8c0 10f0 	str.w	r1, [r0, #240]	; 0xf0
    415a:	f8a0 30f6 	strh.w	r3, [r0, #246]	; 0xf6
    415e:	bd30      	pop	{r4, r5, pc}
    4160:	41a00000 	movmi	r0, r0
    4164:	3f666666 	svccc	0x00666666
    4168:	41200000 			; <UNDEFINED> instruction: 0x41200000
    416c:	40400000 	submi	r0, r0, r0
    4170:	42c80000 	sbcmi	r0, r8, #0
    4174:	40a00000 	adcmi	r0, r0, r0
    4178:	41f00000 	mvnsmi	r0, r0

Disassembly of section .text.fmaxf:

0000417c <fmaxf>:
    417c:	b508      	push	{r3, lr}
    417e:	ed2d 8b02 	vpush	{d8}
    4182:	eeb0 8a60 	vmov.f32	s16, s1
    4186:	eef0 8a40 	vmov.f32	s17, s0
    418a:	f000 f833 	bl	41f4 <__fpclassifyf>
    418e:	b920      	cbnz	r0, 419a <fmaxf+0x1e>
    4190:	eeb0 0a48 	vmov.f32	s0, s16
    4194:	ecbd 8b02 	vpop	{d8}
    4198:	bd08      	pop	{r3, pc}
    419a:	eeb0 0a48 	vmov.f32	s0, s16
    419e:	f000 f829 	bl	41f4 <__fpclassifyf>
    41a2:	b120      	cbz	r0, 41ae <fmaxf+0x32>
    41a4:	eef4 8ac8 	vcmpe.f32	s17, s16
    41a8:	eef1 fa10 	vmrs	APSR_nzcv, fpscr
    41ac:	ddf0      	ble.n	4190 <fmaxf+0x14>
    41ae:	eeb0 0a68 	vmov.f32	s0, s17
    41b2:	ecbd 8b02 	vpop	{d8}
    41b6:	bd08      	pop	{r3, pc}

Disassembly of section .text.fminf:

000041b8 <fminf>:
    41b8:	b508      	push	{r3, lr}
    41ba:	ed2d 8b02 	vpush	{d8}
    41be:	eeb0 8a60 	vmov.f32	s16, s1
    41c2:	eef0 8a40 	vmov.f32	s17, s0
    41c6:	f000 f815 	bl	41f4 <__fpclassifyf>
    41ca:	b920      	cbnz	r0, 41d6 <fminf+0x1e>
    41cc:	eeb0 0a48 	vmov.f32	s0, s16
    41d0:	ecbd 8b02 	vpop	{d8}
    41d4:	bd08      	pop	{r3, pc}
    41d6:	eeb0 0a48 	vmov.f32	s0, s16
    41da:	f000 f80b 	bl	41f4 <__fpclassifyf>
    41de:	b120      	cbz	r0, 41ea <fminf+0x32>
    41e0:	eef4 8ac8 	vcmpe.f32	s17, s16
    41e4:	eef1 fa10 	vmrs	APSR_nzcv, fpscr
    41e8:	d5f0      	bpl.n	41cc <fminf+0x14>
    41ea:	eeb0 0a68 	vmov.f32	s0, s17
    41ee:	ecbd 8b02 	vpop	{d8}
    41f2:	bd08      	pop	{r3, pc}

Disassembly of section .text.__fpclassifyf:

000041f4 <__fpclassifyf>:
    41f4:	ee10 3a10 	vmov	r3, s0
    41f8:	f033 4000 	bics.w	r0, r3, #2147483648	; 0x80000000
    41fc:	d00e      	beq.n	421c <__fpclassifyf+0x28>
    41fe:	f5a0 0300 	sub.w	r3, r0, #8388608	; 0x800000
    4202:	f1b3 4ffe 	cmp.w	r3, #2130706432	; 0x7f000000
    4206:	d30b      	bcc.n	4220 <__fpclassifyf+0x2c>
    4208:	4b07      	ldr	r3, [pc, #28]	; (4228 <__fpclassifyf+0x34>)
    420a:	1e42      	subs	r2, r0, #1
    420c:	429a      	cmp	r2, r3
    420e:	d909      	bls.n	4224 <__fpclassifyf+0x30>
    4210:	f1a0 40ff 	sub.w	r0, r0, #2139095040	; 0x7f800000
    4214:	fab0 f080 	clz	r0, r0
    4218:	0940      	lsrs	r0, r0, #5
    421a:	4770      	bx	lr
    421c:	2002      	movs	r0, #2
    421e:	4770      	bx	lr
    4220:	2004      	movs	r0, #4
    4222:	4770      	bx	lr
    4224:	2003      	movs	r0, #3
    4226:	4770      	bx	lr
    4228:	007ffffe 	ldrshteq	pc, [pc], #-254	; <UNPREDICTABLE>

Disassembly of section .text.frexpf:

0000422c <frexpf>:
    422c:	ee10 1a10 	vmov	r1, s0
    4230:	f021 4300 	bic.w	r3, r1, #2147483648	; 0x80000000
    4234:	b410      	push	{r4}
    4236:	f1b3 4fff 	cmp.w	r3, #2139095040	; 0x7f800000
    423a:	f04f 0400 	mov.w	r4, #0
    423e:	6004      	str	r4, [r0, #0]
    4240:	da17      	bge.n	4272 <frexpf+0x46>
    4242:	b1b3      	cbz	r3, 4272 <frexpf+0x46>
    4244:	f5b3 0f00 	cmp.w	r3, #8388608	; 0x800000
    4248:	ee10 2a10 	vmov	r2, s0
    424c:	da09      	bge.n	4262 <frexpf+0x36>
    424e:	eddf 7a0b 	vldr	s15, [pc, #44]	; 427c <frexpf+0x50>
    4252:	ee60 7a27 	vmul.f32	s15, s0, s15
    4256:	f06f 0418 	mvn.w	r4, #24
    425a:	ee17 2a90 	vmov	r2, s15
    425e:	f022 4300 	bic.w	r3, r2, #2147483648	; 0x80000000
    4262:	15db      	asrs	r3, r3, #23
    4264:	3b7e      	subs	r3, #126	; 0x7e
    4266:	4423      	add	r3, r4
    4268:	f022 42ff 	bic.w	r2, r2, #2139095040	; 0x7f800000
    426c:	6003      	str	r3, [r0, #0]
    426e:	f042 517c 	orr.w	r1, r2, #1056964608	; 0x3f000000
    4272:	ee00 1a10 	vmov	s0, r1
    4276:	f85d 4b04 	ldr.w	r4, [sp], #4
    427a:	4770      	bx	lr
    427c:	4c000000 	stcmi	0, cr0, [r0], {-0}

Disassembly of section .text.ldexpf:

00004280 <ldexpf>:
    4280:	b510      	push	{r4, lr}
    4282:	ed2d 8b02 	vpush	{d8}
    4286:	4604      	mov	r4, r0
    4288:	eeb0 8a40 	vmov.f32	s16, s0
    428c:	f000 ff6a 	bl	5164 <finitef>
    4290:	b120      	cbz	r0, 429c <ldexpf+0x1c>
    4292:	eeb5 8a40 	vcmp.f32	s16, #0.0
    4296:	eef1 fa10 	vmrs	APSR_nzcv, fpscr
    429a:	d104      	bne.n	42a6 <ldexpf+0x26>
    429c:	eeb0 0a48 	vmov.f32	s0, s16
    42a0:	ecbd 8b02 	vpop	{d8}
    42a4:	bd10      	pop	{r4, pc}
    42a6:	eeb0 0a48 	vmov.f32	s0, s16
    42aa:	4620      	mov	r0, r4
    42ac:	f000 f844 	bl	4338 <scalbnf>
    42b0:	eeb0 8a40 	vmov.f32	s16, s0
    42b4:	f000 ff56 	bl	5164 <finitef>
    42b8:	b120      	cbz	r0, 42c4 <ldexpf+0x44>
    42ba:	eeb5 8a40 	vcmp.f32	s16, #0.0
    42be:	eef1 fa10 	vmrs	APSR_nzcv, fpscr
    42c2:	d1eb      	bne.n	429c <ldexpf+0x1c>
    42c4:	f000 ff9e 	bl	5204 <__errno>
    42c8:	eeb0 0a48 	vmov.f32	s0, s16
    42cc:	ecbd 8b02 	vpop	{d8}
    42d0:	2322      	movs	r3, #34	; 0x22
    42d2:	6003      	str	r3, [r0, #0]
    42d4:	bd10      	pop	{r4, pc}
    42d6:	bf00      	nop

Disassembly of section .text.roundf:

000042d8 <roundf>:
    42d8:	b082      	sub	sp, #8
    42da:	ed8d 0a01 	vstr	s0, [sp, #4]
    42de:	9901      	ldr	r1, [sp, #4]
    42e0:	f3c1 53c7 	ubfx	r3, r1, #23, #8
    42e4:	f1a3 027f 	sub.w	r2, r3, #127	; 0x7f
    42e8:	2a16      	cmp	r2, #22
    42ea:	dc0c      	bgt.n	4306 <roundf+0x2e>
    42ec:	2a00      	cmp	r2, #0
    42ee:	db10      	blt.n	4312 <roundf+0x3a>
    42f0:	4810      	ldr	r0, [pc, #64]	; (4334 <roundf+0x5c>)
    42f2:	4110      	asrs	r0, r2
    42f4:	4201      	tst	r1, r0
    42f6:	d008      	beq.n	430a <roundf+0x32>
    42f8:	f44f 0380 	mov.w	r3, #4194304	; 0x400000
    42fc:	4113      	asrs	r3, r2
    42fe:	440b      	add	r3, r1
    4300:	ea23 0300 	bic.w	r3, r3, r0
    4304:	e00b      	b.n	431e <roundf+0x46>
    4306:	2a80      	cmp	r2, #128	; 0x80
    4308:	d00d      	beq.n	4326 <roundf+0x4e>
    430a:	ed9d 0a01 	vldr	s0, [sp, #4]
    430e:	b002      	add	sp, #8
    4310:	4770      	bx	lr
    4312:	3201      	adds	r2, #1
    4314:	f001 4300 	and.w	r3, r1, #2147483648	; 0x80000000
    4318:	d101      	bne.n	431e <roundf+0x46>
    431a:	f043 537e 	orr.w	r3, r3, #1065353216	; 0x3f800000
    431e:	ee00 3a10 	vmov	s0, r3
    4322:	b002      	add	sp, #8
    4324:	4770      	bx	lr
    4326:	eddd 7a01 	vldr	s15, [sp, #4]
    432a:	ee37 0aa7 	vadd.f32	s0, s15, s15
    432e:	b002      	add	sp, #8
    4330:	4770      	bx	lr
    4332:	bf00      	nop
    4334:	007fffff 	ldrshteq	pc, [pc], #-255	; <UNPREDICTABLE>

Disassembly of section .text.scalbnf:

00004338 <scalbnf>:
    4338:	b508      	push	{r3, lr}
    433a:	ee10 3a10 	vmov	r3, s0
    433e:	f033 4200 	bics.w	r2, r3, #2147483648	; 0x80000000
    4342:	ed2d 8b02 	vpush	{d8}
    4346:	d011      	beq.n	436c <scalbnf+0x34>
    4348:	f1b2 4fff 	cmp.w	r2, #2139095040	; 0x7f800000
    434c:	d211      	bcs.n	4372 <scalbnf+0x3a>
    434e:	f5b2 0f00 	cmp.w	r2, #8388608	; 0x800000
    4352:	d313      	bcc.n	437c <scalbnf+0x44>
    4354:	0dd2      	lsrs	r2, r2, #23
    4356:	4402      	add	r2, r0
    4358:	2afe      	cmp	r2, #254	; 0xfe
    435a:	dc1c      	bgt.n	4396 <scalbnf+0x5e>
    435c:	2a00      	cmp	r2, #0
    435e:	dd2a      	ble.n	43b6 <scalbnf+0x7e>
    4360:	f023 43ff 	bic.w	r3, r3, #2139095040	; 0x7f800000
    4364:	ea43 53c2 	orr.w	r3, r3, r2, lsl #23
    4368:	ee00 3a10 	vmov	s0, r3
    436c:	ecbd 8b02 	vpop	{d8}
    4370:	bd08      	pop	{r3, pc}
    4372:	ecbd 8b02 	vpop	{d8}
    4376:	ee30 0a00 	vadd.f32	s0, s0, s0
    437a:	bd08      	pop	{r3, pc}
    437c:	4b1d      	ldr	r3, [pc, #116]	; (43f4 <scalbnf+0xbc>)
    437e:	eddf 7a1e 	vldr	s15, [pc, #120]	; 43f8 <scalbnf+0xc0>
    4382:	4298      	cmp	r0, r3
    4384:	ee20 0a27 	vmul.f32	s0, s0, s15
    4388:	db10      	blt.n	43ac <scalbnf+0x74>
    438a:	ee10 3a10 	vmov	r3, s0
    438e:	f3c3 52c7 	ubfx	r2, r3, #23, #8
    4392:	3a19      	subs	r2, #25
    4394:	e7df      	b.n	4356 <scalbnf+0x1e>
    4396:	ed9f 8a19 	vldr	s16, [pc, #100]	; 43fc <scalbnf+0xc4>
    439a:	eef0 0a40 	vmov.f32	s1, s0
    439e:	eeb0 0a48 	vmov.f32	s0, s16
    43a2:	f000 fecb 	bl	513c <copysignf>
    43a6:	ee20 0a08 	vmul.f32	s0, s0, s16
    43aa:	e7df      	b.n	436c <scalbnf+0x34>
    43ac:	eddf 0a14 	vldr	s1, [pc, #80]	; 4400 <scalbnf+0xc8>
    43b0:	ee20 0a20 	vmul.f32	s0, s0, s1
    43b4:	e7da      	b.n	436c <scalbnf+0x34>
    43b6:	f112 0f16 	cmn.w	r2, #22
    43ba:	da0e      	bge.n	43da <scalbnf+0xa2>
    43bc:	f24c 3350 	movw	r3, #50000	; 0xc350
    43c0:	4298      	cmp	r0, r3
    43c2:	dce8      	bgt.n	4396 <scalbnf+0x5e>
    43c4:	ed9f 8a0e 	vldr	s16, [pc, #56]	; 4400 <scalbnf+0xc8>
    43c8:	eef0 0a40 	vmov.f32	s1, s0
    43cc:	eeb0 0a48 	vmov.f32	s0, s16
    43d0:	f000 feb4 	bl	513c <copysignf>
    43d4:	ee20 0a08 	vmul.f32	s0, s0, s16
    43d8:	e7c8      	b.n	436c <scalbnf+0x34>
    43da:	3219      	adds	r2, #25
    43dc:	f023 43ff 	bic.w	r3, r3, #2139095040	; 0x7f800000
    43e0:	ea43 53c2 	orr.w	r3, r3, r2, lsl #23
    43e4:	eddf 7a07 	vldr	s15, [pc, #28]	; 4404 <scalbnf+0xcc>
    43e8:	ee00 3a10 	vmov	s0, r3
    43ec:	ee20 0a27 	vmul.f32	s0, s0, s15
    43f0:	e7bc      	b.n	436c <scalbnf+0x34>
    43f2:	bf00      	nop
    43f4:	ffff3cb0 			; <UNDEFINED> instruction: 0xffff3cb0
    43f8:	4c000000 	stcmi	0, cr0, [r0], {-0}
    43fc:	7149f2ca 	smlalbtvc	pc, r9, sl, r2	; <UNPREDICTABLE>
    4400:	0da24260 	sfmeq	f4, 4, [r2, #384]!	; 0x180
    4404:	33000000 	movwcc	r0, #0

Disassembly of section .text.sinf:

00004408 <sinf>:
    4408:	b500      	push	{lr}
    440a:	ee10 3a10 	vmov	r3, s0
    440e:	4a21      	ldr	r2, [pc, #132]	; (4494 <sinf+0x8c>)
    4410:	f023 4300 	bic.w	r3, r3, #2147483648	; 0x80000000
    4414:	4293      	cmp	r3, r2
    4416:	b083      	sub	sp, #12
    4418:	dd1a      	ble.n	4450 <sinf+0x48>
    441a:	f1b3 4fff 	cmp.w	r3, #2139095040	; 0x7f800000
    441e:	db04      	blt.n	442a <sinf+0x22>
    4420:	ee30 0a40 	vsub.f32	s0, s0, s0
    4424:	b003      	add	sp, #12
    4426:	f85d fb04 	ldr.w	pc, [sp], #4
    442a:	4668      	mov	r0, sp
    442c:	f000 f864 	bl	44f8 <__ieee754_rem_pio2f>
    4430:	f000 0003 	and.w	r0, r0, #3
    4434:	2801      	cmp	r0, #1
    4436:	d013      	beq.n	4460 <sinf+0x58>
    4438:	2802      	cmp	r0, #2
    443a:	d020      	beq.n	447e <sinf+0x76>
    443c:	b1b8      	cbz	r0, 446e <sinf+0x66>
    443e:	eddd 0a01 	vldr	s1, [sp, #4]
    4442:	ed9d 0a00 	vldr	s0, [sp]
    4446:	f000 f9a3 	bl	4790 <__kernel_cosf>
    444a:	eeb1 0a40 	vneg.f32	s0, s0
    444e:	e7e9      	b.n	4424 <sinf+0x1c>
    4450:	2000      	movs	r0, #0
    4452:	eddf 0a11 	vldr	s1, [pc, #68]	; 4498 <sinf+0x90>
    4456:	f000 fd45 	bl	4ee4 <__kernel_sinf>
    445a:	b003      	add	sp, #12
    445c:	f85d fb04 	ldr.w	pc, [sp], #4
    4460:	eddd 0a01 	vldr	s1, [sp, #4]
    4464:	ed9d 0a00 	vldr	s0, [sp]
    4468:	f000 f992 	bl	4790 <__kernel_cosf>
    446c:	e7da      	b.n	4424 <sinf+0x1c>
    446e:	2001      	movs	r0, #1
    4470:	eddd 0a01 	vldr	s1, [sp, #4]
    4474:	ed9d 0a00 	vldr	s0, [sp]
    4478:	f000 fd34 	bl	4ee4 <__kernel_sinf>
    447c:	e7d2      	b.n	4424 <sinf+0x1c>
    447e:	2001      	movs	r0, #1
    4480:	eddd 0a01 	vldr	s1, [sp, #4]
    4484:	ed9d 0a00 	vldr	s0, [sp]
    4488:	f000 fd2c 	bl	4ee4 <__kernel_sinf>
    448c:	eeb1 0a40 	vneg.f32	s0, s0
    4490:	e7c8      	b.n	4424 <sinf+0x1c>
    4492:	bf00      	nop
    4494:	3f490fd8 	svccc	0x00490fd8
    4498:	00000000 	andeq	r0, r0, r0

Disassembly of section .text.tanf:

0000449c <tanf>:
    449c:	b500      	push	{lr}
    449e:	ee10 3a10 	vmov	r3, s0
    44a2:	4a13      	ldr	r2, [pc, #76]	; (44f0 <tanf+0x54>)
    44a4:	f023 4300 	bic.w	r3, r3, #2147483648	; 0x80000000
    44a8:	4293      	cmp	r3, r2
    44aa:	b083      	sub	sp, #12
    44ac:	dd18      	ble.n	44e0 <tanf+0x44>
    44ae:	f1b3 4fff 	cmp.w	r3, #2139095040	; 0x7f800000
    44b2:	db04      	blt.n	44be <tanf+0x22>
    44b4:	ee30 0a40 	vsub.f32	s0, s0, s0
    44b8:	b003      	add	sp, #12
    44ba:	f85d fb04 	ldr.w	pc, [sp], #4
    44be:	4668      	mov	r0, sp
    44c0:	f000 f81a 	bl	44f8 <__ieee754_rem_pio2f>
    44c4:	0040      	lsls	r0, r0, #1
    44c6:	f000 0002 	and.w	r0, r0, #2
    44ca:	f1c0 0001 	rsb	r0, r0, #1
    44ce:	eddd 0a01 	vldr	s1, [sp, #4]
    44d2:	ed9d 0a00 	vldr	s0, [sp]
    44d6:	f000 fd4d 	bl	4f74 <__kernel_tanf>
    44da:	b003      	add	sp, #12
    44dc:	f85d fb04 	ldr.w	pc, [sp], #4
    44e0:	2001      	movs	r0, #1
    44e2:	eddf 0a04 	vldr	s1, [pc, #16]	; 44f4 <tanf+0x58>
    44e6:	f000 fd45 	bl	4f74 <__kernel_tanf>
    44ea:	b003      	add	sp, #12
    44ec:	f85d fb04 	ldr.w	pc, [sp], #4
    44f0:	3f490fda 	svccc	0x00490fda
    44f4:	00000000 	andeq	r0, r0, r0

Disassembly of section .text.__ieee754_rem_pio2f:

000044f8 <__ieee754_rem_pio2f>:
    44f8:	b570      	push	{r4, r5, r6, lr}
    44fa:	ee10 3a10 	vmov	r3, s0
    44fe:	4a96      	ldr	r2, [pc, #600]	; (4758 <__ieee754_rem_pio2f+0x260>)
    4500:	f023 4400 	bic.w	r4, r3, #2147483648	; 0x80000000
    4504:	4294      	cmp	r4, r2
    4506:	b086      	sub	sp, #24
    4508:	4605      	mov	r5, r0
    450a:	dd69      	ble.n	45e0 <__ieee754_rem_pio2f+0xe8>
    450c:	4a93      	ldr	r2, [pc, #588]	; (475c <__ieee754_rem_pio2f+0x264>)
    450e:	4294      	cmp	r4, r2
    4510:	ee10 6a10 	vmov	r6, s0
    4514:	dc1a      	bgt.n	454c <__ieee754_rem_pio2f+0x54>
    4516:	2b00      	cmp	r3, #0
    4518:	f024 040f 	bic.w	r4, r4, #15
    451c:	eddf 7a90 	vldr	s15, [pc, #576]	; 4760 <__ieee754_rem_pio2f+0x268>
    4520:	4a90      	ldr	r2, [pc, #576]	; (4764 <__ieee754_rem_pio2f+0x26c>)
    4522:	dd64      	ble.n	45ee <__ieee754_rem_pio2f+0xf6>
    4524:	4294      	cmp	r4, r2
    4526:	ee70 7a67 	vsub.f32	s15, s0, s15
    452a:	f000 80cf 	beq.w	46cc <__ieee754_rem_pio2f+0x1d4>
    452e:	ed9f 7a8e 	vldr	s14, [pc, #568]	; 4768 <__ieee754_rem_pio2f+0x270>
    4532:	ee77 6ac7 	vsub.f32	s13, s15, s14
    4536:	2001      	movs	r0, #1
    4538:	ee77 7ae6 	vsub.f32	s15, s15, s13
    453c:	edc5 6a00 	vstr	s13, [r5]
    4540:	ee77 7ac7 	vsub.f32	s15, s15, s14
    4544:	edc5 7a01 	vstr	s15, [r5, #4]
    4548:	b006      	add	sp, #24
    454a:	bd70      	pop	{r4, r5, r6, pc}
    454c:	4a87      	ldr	r2, [pc, #540]	; (476c <__ieee754_rem_pio2f+0x274>)
    454e:	4294      	cmp	r4, r2
    4550:	dd61      	ble.n	4616 <__ieee754_rem_pio2f+0x11e>
    4552:	f1b4 4fff 	cmp.w	r4, #2139095040	; 0x7f800000
    4556:	f280 80b1 	bge.w	46bc <__ieee754_rem_pio2f+0x1c4>
    455a:	15e2      	asrs	r2, r4, #23
    455c:	3a86      	subs	r2, #134	; 0x86
    455e:	eba4 53c2 	sub.w	r3, r4, r2, lsl #23
    4562:	ee07 3a90 	vmov	s15, r3
    4566:	eebd 7ae7 	vcvt.s32.f32	s14, s15
    456a:	eddf 6a81 	vldr	s13, [pc, #516]	; 4770 <__ieee754_rem_pio2f+0x278>
    456e:	eeb8 7ac7 	vcvt.f32.s32	s14, s14
    4572:	ee77 7ac7 	vsub.f32	s15, s15, s14
    4576:	ed8d 7a03 	vstr	s14, [sp, #12]
    457a:	ee67 7aa6 	vmul.f32	s15, s15, s13
    457e:	eebd 7ae7 	vcvt.s32.f32	s14, s15
    4582:	eeb8 7ac7 	vcvt.f32.s32	s14, s14
    4586:	ee77 7ac7 	vsub.f32	s15, s15, s14
    458a:	ed8d 7a04 	vstr	s14, [sp, #16]
    458e:	ee67 7aa6 	vmul.f32	s15, s15, s13
    4592:	eef5 7a40 	vcmp.f32	s15, #0.0
    4596:	eef1 fa10 	vmrs	APSR_nzcv, fpscr
    459a:	edcd 7a05 	vstr	s15, [sp, #20]
    459e:	f040 80c7 	bne.w	4730 <__ieee754_rem_pio2f+0x238>
    45a2:	eeb5 7a40 	vcmp.f32	s14, #0.0
    45a6:	eef1 fa10 	vmrs	APSR_nzcv, fpscr
    45aa:	bf0c      	ite	eq
    45ac:	2301      	moveq	r3, #1
    45ae:	2302      	movne	r3, #2
    45b0:	4970      	ldr	r1, [pc, #448]	; (4774 <__ieee754_rem_pio2f+0x27c>)
    45b2:	9101      	str	r1, [sp, #4]
    45b4:	2102      	movs	r1, #2
    45b6:	9100      	str	r1, [sp, #0]
    45b8:	a803      	add	r0, sp, #12
    45ba:	4629      	mov	r1, r5
    45bc:	f000 f96a 	bl	4894 <__kernel_rem_pio2f>
    45c0:	2e00      	cmp	r6, #0
    45c2:	da12      	bge.n	45ea <__ieee754_rem_pio2f+0xf2>
    45c4:	ed95 7a00 	vldr	s14, [r5]
    45c8:	edd5 7a01 	vldr	s15, [r5, #4]
    45cc:	eeb1 7a47 	vneg.f32	s14, s14
    45d0:	eef1 7a67 	vneg.f32	s15, s15
    45d4:	4240      	negs	r0, r0
    45d6:	ed85 7a00 	vstr	s14, [r5]
    45da:	edc5 7a01 	vstr	s15, [r5, #4]
    45de:	e004      	b.n	45ea <__ieee754_rem_pio2f+0xf2>
    45e0:	2200      	movs	r2, #0
    45e2:	ed85 0a00 	vstr	s0, [r5]
    45e6:	6042      	str	r2, [r0, #4]
    45e8:	2000      	movs	r0, #0
    45ea:	b006      	add	sp, #24
    45ec:	bd70      	pop	{r4, r5, r6, pc}
    45ee:	4294      	cmp	r4, r2
    45f0:	ee70 7a27 	vadd.f32	s15, s0, s15
    45f4:	f000 8089 	beq.w	470a <__ieee754_rem_pio2f+0x212>
    45f8:	ed9f 7a5b 	vldr	s14, [pc, #364]	; 4768 <__ieee754_rem_pio2f+0x270>
    45fc:	ee77 6a87 	vadd.f32	s13, s15, s14
    4600:	f04f 30ff 	mov.w	r0, #4294967295	; 0xffffffff
    4604:	ee77 7ae6 	vsub.f32	s15, s15, s13
    4608:	edc5 6a00 	vstr	s13, [r5]
    460c:	ee77 7a87 	vadd.f32	s15, s15, s14
    4610:	edc5 7a01 	vstr	s15, [r5, #4]
    4614:	e7e9      	b.n	45ea <__ieee754_rem_pio2f+0xf2>
    4616:	f000 fd9d 	bl	5154 <fabsf>
    461a:	eddf 6a57 	vldr	s13, [pc, #348]	; 4778 <__ieee754_rem_pio2f+0x280>
    461e:	eddf 5a50 	vldr	s11, [pc, #320]	; 4760 <__ieee754_rem_pio2f+0x268>
    4622:	ed9f 7a51 	vldr	s14, [pc, #324]	; 4768 <__ieee754_rem_pio2f+0x270>
    4626:	eef6 7a00 	vmov.f32	s15, #96	; 0x3f000000  0.5
    462a:	eee0 7a26 	vfma.f32	s15, s0, s13
    462e:	eefd 7ae7 	vcvt.s32.f32	s15, s15
    4632:	ee17 0a90 	vmov	r0, s15
    4636:	eef8 6ae7 	vcvt.f32.s32	s13, s15
    463a:	281f      	cmp	r0, #31
    463c:	eeb1 6a66 	vneg.f32	s12, s13
    4640:	eea6 0a25 	vfma.f32	s0, s12, s11
    4644:	ee66 7a87 	vmul.f32	s15, s13, s14
    4648:	dd52      	ble.n	46f0 <__ieee754_rem_pio2f+0x1f8>
    464a:	ee30 7a67 	vsub.f32	s14, s0, s15
    464e:	ee17 3a10 	vmov	r3, s14
    4652:	15e4      	asrs	r4, r4, #23
    4654:	f3c3 53c7 	ubfx	r3, r3, #23, #8
    4658:	1ae3      	subs	r3, r4, r3
    465a:	2b08      	cmp	r3, #8
    465c:	dd52      	ble.n	4704 <__ieee754_rem_pio2f+0x20c>
    465e:	eddf 7a47 	vldr	s15, [pc, #284]	; 477c <__ieee754_rem_pio2f+0x284>
    4662:	ed9f 7a47 	vldr	s14, [pc, #284]	; 4780 <__ieee754_rem_pio2f+0x288>
    4666:	eef0 5a40 	vmov.f32	s11, s0
    466a:	eee6 5a27 	vfma.f32	s11, s12, s15
    466e:	ee30 0a65 	vsub.f32	s0, s0, s11
    4672:	eea6 0a27 	vfma.f32	s0, s12, s15
    4676:	eef0 7a40 	vmov.f32	s15, s0
    467a:	eed6 7a87 	vfnms.f32	s15, s13, s14
    467e:	ee35 7ae7 	vsub.f32	s14, s11, s15
    4682:	ee17 3a10 	vmov	r3, s14
    4686:	f3c3 53c7 	ubfx	r3, r3, #23, #8
    468a:	1ae4      	subs	r4, r4, r3
    468c:	2c19      	cmp	r4, #25
    468e:	dc51      	bgt.n	4734 <__ieee754_rem_pio2f+0x23c>
    4690:	ed85 7a00 	vstr	s14, [r5]
    4694:	eeb0 0a65 	vmov.f32	s0, s11
    4698:	ee30 0a47 	vsub.f32	s0, s0, s14
    469c:	2e00      	cmp	r6, #0
    469e:	ee30 0a67 	vsub.f32	s0, s0, s15
    46a2:	ed85 0a01 	vstr	s0, [r5, #4]
    46a6:	daa0      	bge.n	45ea <__ieee754_rem_pio2f+0xf2>
    46a8:	eeb1 7a47 	vneg.f32	s14, s14
    46ac:	eeb1 0a40 	vneg.f32	s0, s0
    46b0:	ed85 7a00 	vstr	s14, [r5]
    46b4:	ed85 0a01 	vstr	s0, [r5, #4]
    46b8:	4240      	negs	r0, r0
    46ba:	e796      	b.n	45ea <__ieee754_rem_pio2f+0xf2>
    46bc:	ee70 7a40 	vsub.f32	s15, s0, s0
    46c0:	2000      	movs	r0, #0
    46c2:	edc5 7a01 	vstr	s15, [r5, #4]
    46c6:	edc5 7a00 	vstr	s15, [r5]
    46ca:	e78e      	b.n	45ea <__ieee754_rem_pio2f+0xf2>
    46cc:	eddf 6a2b 	vldr	s13, [pc, #172]	; 477c <__ieee754_rem_pio2f+0x284>
    46d0:	ed9f 7a2b 	vldr	s14, [pc, #172]	; 4780 <__ieee754_rem_pio2f+0x288>
    46d4:	ee77 7ae6 	vsub.f32	s15, s15, s13
    46d8:	2001      	movs	r0, #1
    46da:	ee77 6ac7 	vsub.f32	s13, s15, s14
    46de:	ee77 7ae6 	vsub.f32	s15, s15, s13
    46e2:	edc5 6a00 	vstr	s13, [r5]
    46e6:	ee77 7ac7 	vsub.f32	s15, s15, s14
    46ea:	edc5 7a01 	vstr	s15, [r5, #4]
    46ee:	e77c      	b.n	45ea <__ieee754_rem_pio2f+0xf2>
    46f0:	1e42      	subs	r2, r0, #1
    46f2:	4b24      	ldr	r3, [pc, #144]	; (4784 <__ieee754_rem_pio2f+0x28c>)
    46f4:	f853 3022 	ldr.w	r3, [r3, r2, lsl #2]
    46f8:	f024 02ff 	bic.w	r2, r4, #255	; 0xff
    46fc:	429a      	cmp	r2, r3
    46fe:	ee30 7a67 	vsub.f32	s14, s0, s15
    4702:	d0a4      	beq.n	464e <__ieee754_rem_pio2f+0x156>
    4704:	ed85 7a00 	vstr	s14, [r5]
    4708:	e7c6      	b.n	4698 <__ieee754_rem_pio2f+0x1a0>
    470a:	eddf 6a1c 	vldr	s13, [pc, #112]	; 477c <__ieee754_rem_pio2f+0x284>
    470e:	ed9f 7a1c 	vldr	s14, [pc, #112]	; 4780 <__ieee754_rem_pio2f+0x288>
    4712:	ee77 7aa6 	vadd.f32	s15, s15, s13
    4716:	f04f 30ff 	mov.w	r0, #4294967295	; 0xffffffff
    471a:	ee77 6a87 	vadd.f32	s13, s15, s14
    471e:	ee77 7ae6 	vsub.f32	s15, s15, s13
    4722:	edc5 6a00 	vstr	s13, [r5]
    4726:	ee77 7a87 	vadd.f32	s15, s15, s14
    472a:	edc5 7a01 	vstr	s15, [r5, #4]
    472e:	e75c      	b.n	45ea <__ieee754_rem_pio2f+0xf2>
    4730:	2303      	movs	r3, #3
    4732:	e73d      	b.n	45b0 <__ieee754_rem_pio2f+0xb8>
    4734:	ed9f 7a14 	vldr	s14, [pc, #80]	; 4788 <__ieee754_rem_pio2f+0x290>
    4738:	ed9f 5a14 	vldr	s10, [pc, #80]	; 478c <__ieee754_rem_pio2f+0x294>
    473c:	eeb0 0a65 	vmov.f32	s0, s11
    4740:	eea6 0a07 	vfma.f32	s0, s12, s14
    4744:	ee75 7ac0 	vsub.f32	s15, s11, s0
    4748:	eee6 7a07 	vfma.f32	s15, s12, s14
    474c:	eed6 7a85 	vfnms.f32	s15, s13, s10
    4750:	ee30 7a67 	vsub.f32	s14, s0, s15
    4754:	e7d6      	b.n	4704 <__ieee754_rem_pio2f+0x20c>
    4756:	bf00      	nop
    4758:	3f490fd8 	svccc	0x00490fd8
    475c:	4016cbe3 	andsmi	ip, r6, r3, ror #23
    4760:	3fc90f80 	svccc	0x00c90f80
    4764:	3fc90fd0 	svccc	0x00c90fd0
    4768:	37354443 	ldrcc	r4, [r5, -r3, asr #8]!
    476c:	43490f80 	movtmi	r0, #40832	; 0x9f80
    4770:	43800000 	orrmi	r0, r0, #0
    4774:	00002180 	andeq	r2, r0, r0, lsl #3
    4778:	3f22f984 	svccc	0x0022f984
    477c:	37354400 	ldrcc	r4, [r5, -r0, lsl #8]!
    4780:	2e85a308 	cdpcs	3, 8, cr10, cr5, cr8, {0}
    4784:	00002100 	andeq	r2, r0, r0, lsl #2
    4788:	2e85a300 	cdpcs	3, 8, cr10, cr5, cr0, {0}
    478c:	248d3132 	strcs	r3, [sp], #306	; 0x132

Disassembly of section .text.__kernel_cosf:

00004790 <__kernel_cosf>:
    4790:	ee10 3a10 	vmov	r3, s0
    4794:	f023 4300 	bic.w	r3, r3, #2147483648	; 0x80000000
    4798:	f1b3 5f48 	cmp.w	r3, #838860800	; 0x32000000
    479c:	da2c      	bge.n	47f8 <__kernel_cosf+0x68>
    479e:	eefd 7ac0 	vcvt.s32.f32	s15, s0
    47a2:	ee17 3a90 	vmov	r3, s15
    47a6:	2b00      	cmp	r3, #0
    47a8:	d05b      	beq.n	4862 <__kernel_cosf+0xd2>
    47aa:	ee20 7a00 	vmul.f32	s14, s0, s0
    47ae:	eddf 4a31 	vldr	s9, [pc, #196]	; 4874 <__kernel_cosf+0xe4>
    47b2:	ed9f 5a31 	vldr	s10, [pc, #196]	; 4878 <__kernel_cosf+0xe8>
    47b6:	eddf 5a31 	vldr	s11, [pc, #196]	; 487c <__kernel_cosf+0xec>
    47ba:	ed9f 6a31 	vldr	s12, [pc, #196]	; 4880 <__kernel_cosf+0xf0>
    47be:	eddf 7a31 	vldr	s15, [pc, #196]	; 4884 <__kernel_cosf+0xf4>
    47c2:	eddf 6a31 	vldr	s13, [pc, #196]	; 4888 <__kernel_cosf+0xf8>
    47c6:	eea7 5a24 	vfma.f32	s10, s14, s9
    47ca:	eee7 5a05 	vfma.f32	s11, s14, s10
    47ce:	eea7 6a25 	vfma.f32	s12, s14, s11
    47d2:	eee7 7a06 	vfma.f32	s15, s14, s12
    47d6:	eee7 6a27 	vfma.f32	s13, s14, s15
    47da:	ee66 6a87 	vmul.f32	s13, s13, s14
    47de:	ee60 0ac0 	vnmul.f32	s1, s1, s0
    47e2:	eeb6 6a00 	vmov.f32	s12, #96	; 0x3f000000  0.5
    47e6:	eee7 0a26 	vfma.f32	s1, s14, s13
    47ea:	eef7 7a00 	vmov.f32	s15, #112	; 0x3f800000  1.0
    47ee:	eed7 0a06 	vfnms.f32	s1, s14, s12
    47f2:	ee37 0ae0 	vsub.f32	s0, s15, s1
    47f6:	4770      	bx	lr
    47f8:	ee20 7a00 	vmul.f32	s14, s0, s0
    47fc:	eddf 4a1d 	vldr	s9, [pc, #116]	; 4874 <__kernel_cosf+0xe4>
    4800:	ed9f 5a1d 	vldr	s10, [pc, #116]	; 4878 <__kernel_cosf+0xe8>
    4804:	eddf 5a1d 	vldr	s11, [pc, #116]	; 487c <__kernel_cosf+0xec>
    4808:	ed9f 6a1d 	vldr	s12, [pc, #116]	; 4880 <__kernel_cosf+0xf0>
    480c:	eddf 7a1d 	vldr	s15, [pc, #116]	; 4884 <__kernel_cosf+0xf4>
    4810:	eddf 6a1d 	vldr	s13, [pc, #116]	; 4888 <__kernel_cosf+0xf8>
    4814:	4a1d      	ldr	r2, [pc, #116]	; (488c <__kernel_cosf+0xfc>)
    4816:	eea7 5a24 	vfma.f32	s10, s14, s9
    481a:	4293      	cmp	r3, r2
    481c:	eee5 5a07 	vfma.f32	s11, s10, s14
    4820:	eea5 6a87 	vfma.f32	s12, s11, s14
    4824:	eee6 7a07 	vfma.f32	s15, s12, s14
    4828:	eee7 6a87 	vfma.f32	s13, s15, s14
    482c:	ee66 6a87 	vmul.f32	s13, s13, s14
    4830:	ddd5      	ble.n	47de <__kernel_cosf+0x4e>
    4832:	4a17      	ldr	r2, [pc, #92]	; (4890 <__kernel_cosf+0x100>)
    4834:	4293      	cmp	r3, r2
    4836:	dc17      	bgt.n	4868 <__kernel_cosf+0xd8>
    4838:	f103 437f 	add.w	r3, r3, #4278190080	; 0xff000000
    483c:	ee07 3a90 	vmov	s15, r3
    4840:	eeb7 6a00 	vmov.f32	s12, #112	; 0x3f800000  1.0
    4844:	ee36 6a67 	vsub.f32	s12, s12, s15
    4848:	ee60 0ac0 	vnmul.f32	s1, s1, s0
    484c:	eef6 5a00 	vmov.f32	s11, #96	; 0x3f000000  0.5
    4850:	eee7 0a26 	vfma.f32	s1, s14, s13
    4854:	eed7 7a25 	vfnms.f32	s15, s14, s11
    4858:	ee77 7ae0 	vsub.f32	s15, s15, s1
    485c:	ee36 0a67 	vsub.f32	s0, s12, s15
    4860:	4770      	bx	lr
    4862:	eeb7 0a00 	vmov.f32	s0, #112	; 0x3f800000  1.0
    4866:	4770      	bx	lr
    4868:	eeb6 6a07 	vmov.f32	s12, #103	; 0x3f380000  0.7187500
    486c:	eef5 7a02 	vmov.f32	s15, #82	; 0x3e900000  0.2812500
    4870:	e7ea      	b.n	4848 <__kernel_cosf+0xb8>
    4872:	bf00      	nop
    4874:	ad47d74e 	stclge	7, cr13, [r7, #-312]	; 0xfffffec8
    4878:	310f74f6 	strdcc	r7, [pc, -r6]
    487c:	b493f27c 	ldrlt	pc, [r3], #636	; 0x27c
    4880:	37d00d01 	ldrbcc	r0, [r0, r1, lsl #26]
    4884:	bab60b61 	blt	fed87610 <memset+0xfed82400>
    4888:	3d2aaaab 	vstmdbcc	sl!, {s20-s190}
    488c:	3e999999 			; <UNDEFINED> instruction: 0x3e999999
    4890:	3f480000 	svccc	0x00480000

Disassembly of section .text.__kernel_rem_pio2f:

00004894 <__kernel_rem_pio2f>:
    4894:	e92d 4ff0 	stmdb	sp!, {r4, r5, r6, r7, r8, r9, sl, fp, lr}
    4898:	ed2d 8b04 	vpush	{d8-d9}
    489c:	b0d7      	sub	sp, #348	; 0x15c
    489e:	f103 39ff 	add.w	r9, r3, #4294967295	; 0xffffffff
    48a2:	9302      	str	r3, [sp, #8]
    48a4:	1ed3      	subs	r3, r2, #3
    48a6:	bf48      	it	mi
    48a8:	1d13      	addmi	r3, r2, #4
    48aa:	4cb2      	ldr	r4, [pc, #712]	; (4b74 <__kernel_rem_pio2f+0x2e0>)
    48ac:	9d64      	ldr	r5, [sp, #400]	; 0x190
    48ae:	9105      	str	r1, [sp, #20]
    48b0:	10db      	asrs	r3, r3, #3
    48b2:	ea23 73e3 	bic.w	r3, r3, r3, asr #31
    48b6:	f854 6025 	ldr.w	r6, [r4, r5, lsl #2]
    48ba:	9303      	str	r3, [sp, #12]
    48bc:	f103 0801 	add.w	r8, r3, #1
    48c0:	eba2 08c8 	sub.w	r8, r2, r8, lsl #3
    48c4:	eb16 0209 	adds.w	r2, r6, r9
    48c8:	4686      	mov	lr, r0
    48ca:	eba3 0309 	sub.w	r3, r3, r9
    48ce:	d416      	bmi.n	48fe <__kernel_rem_pio2f+0x6a>
    48d0:	441a      	add	r2, r3
    48d2:	ed9f 7aa9 	vldr	s14, [pc, #676]	; 4b78 <__kernel_rem_pio2f+0x2e4>
    48d6:	9865      	ldr	r0, [sp, #404]	; 0x194
    48d8:	1c51      	adds	r1, r2, #1
    48da:	aa1a      	add	r2, sp, #104	; 0x68
    48dc:	2b00      	cmp	r3, #0
    48de:	bfa4      	itt	ge
    48e0:	f850 4023 	ldrge.w	r4, [r0, r3, lsl #2]
    48e4:	ee07 4a90 	vmovge	s15, r4
    48e8:	f103 0301 	add.w	r3, r3, #1
    48ec:	bfac      	ite	ge
    48ee:	eef8 7ae7 	vcvtge.f32.s32	s15, s15
    48f2:	eef0 7a47 	vmovlt.f32	s15, s14
    48f6:	428b      	cmp	r3, r1
    48f8:	ece2 7a01 	vstmia	r2!, {s15}
    48fc:	d1ee      	bne.n	48dc <__kernel_rem_pio2f+0x48>
    48fe:	9b02      	ldr	r3, [sp, #8]
    4900:	2e00      	cmp	r6, #0
    4902:	ea4f 0483 	mov.w	r4, r3, lsl #2
    4906:	ea4f 0a86 	mov.w	sl, r6, lsl #2
    490a:	db1d      	blt.n	4948 <__kernel_rem_pio2f+0xb4>
    490c:	ab1a      	add	r3, sp, #104	; 0x68
    490e:	1918      	adds	r0, r3, r4
    4910:	aa43      	add	r2, sp, #268	; 0x10c
    4912:	4673      	mov	r3, lr
    4914:	1919      	adds	r1, r3, r4
    4916:	eb02 070a 	add.w	r7, r2, sl
    491a:	ad42      	add	r5, sp, #264	; 0x108
    491c:	46f4      	mov	ip, lr
    491e:	f1b9 0f00 	cmp.w	r9, #0
    4922:	eddf 7a95 	vldr	s15, [pc, #596]	; 4b78 <__kernel_rem_pio2f+0x2e4>
    4926:	db09      	blt.n	493c <__kernel_rem_pio2f+0xa8>
    4928:	4602      	mov	r2, r0
    492a:	4663      	mov	r3, ip
    492c:	ecf3 6a01 	vldmia	r3!, {s13}
    4930:	ed32 7a01 	vldmdb	r2!, {s14}
    4934:	428b      	cmp	r3, r1
    4936:	eee6 7a87 	vfma.f32	s15, s13, s14
    493a:	d1f7      	bne.n	492c <__kernel_rem_pio2f+0x98>
    493c:	ece5 7a01 	vstmia	r5!, {s15}
    4940:	42bd      	cmp	r5, r7
    4942:	f100 0004 	add.w	r0, r0, #4
    4946:	d1ea      	bne.n	491e <__kernel_rem_pio2f+0x8a>
    4948:	f1aa 0308 	sub.w	r3, sl, #8
    494c:	ad06      	add	r5, sp, #24
    494e:	18eb      	adds	r3, r5, r3
    4950:	9304      	str	r3, [sp, #16]
    4952:	ed9f 9a8b 	vldr	s18, [pc, #556]	; 4b80 <__kernel_rem_pio2f+0x2ec>
    4956:	eddf 8a89 	vldr	s17, [pc, #548]	; 4b7c <__kernel_rem_pio2f+0x2e8>
    495a:	9600      	str	r6, [sp, #0]
    495c:	ab05      	add	r3, sp, #20
    495e:	46b3      	mov	fp, r6
    4960:	4474      	add	r4, lr
    4962:	449a      	add	sl, r3
    4964:	af42      	add	r7, sp, #264	; 0x108
    4966:	4676      	mov	r6, lr
    4968:	ea4f 018b 	mov.w	r1, fp, lsl #2
    496c:	ab56      	add	r3, sp, #344	; 0x158
    496e:	440b      	add	r3, r1
    4970:	f1bb 0f00 	cmp.w	fp, #0
    4974:	ed13 0a14 	vldr	s0, [r3, #-80]	; 0xffffffb0
    4978:	dd16      	ble.n	49a8 <__kernel_rem_pio2f+0x114>
    497a:	eb07 038b 	add.w	r3, r7, fp, lsl #2
    497e:	462a      	mov	r2, r5
    4980:	ee60 7a09 	vmul.f32	s15, s0, s18
    4984:	eeb0 7a40 	vmov.f32	s14, s0
    4988:	eefd 7ae7 	vcvt.s32.f32	s15, s15
    498c:	ed73 6a01 	vldmdb	r3!, {s13}
    4990:	eef8 7ae7 	vcvt.f32.s32	s15, s15
    4994:	42bb      	cmp	r3, r7
    4996:	eea7 7ae8 	vfms.f32	s14, s15, s17
    499a:	ee37 0aa6 	vadd.f32	s0, s15, s13
    499e:	eebd 7ac7 	vcvt.s32.f32	s14, s14
    49a2:	eca2 7a01 	vstmia	r2!, {s14}
    49a6:	d1eb      	bne.n	4980 <__kernel_rem_pio2f+0xec>
    49a8:	4640      	mov	r0, r8
    49aa:	9101      	str	r1, [sp, #4]
    49ac:	f7ff fcc4 	bl	4338 <scalbnf>
    49b0:	eeb0 8a40 	vmov.f32	s16, s0
    49b4:	eeb4 0a00 	vmov.f32	s0, #64	; 0x3e000000  0.125
    49b8:	ee28 0a00 	vmul.f32	s0, s16, s0
    49bc:	f000 fbdc 	bl	5178 <floorf>
    49c0:	eef2 7a00 	vmov.f32	s15, #32	; 0x41000000  8.0
    49c4:	eea0 8a67 	vfms.f32	s16, s0, s15
    49c8:	f1b8 0f00 	cmp.w	r8, #0
    49cc:	9901      	ldr	r1, [sp, #4]
    49ce:	eefd 9ac8 	vcvt.s32.f32	s19, s16
    49d2:	eef8 7ae9 	vcvt.f32.s32	s15, s19
    49d6:	ee38 8a67 	vsub.f32	s16, s16, s15
    49da:	f340 80c4 	ble.w	4b66 <__kernel_rem_pio2f+0x2d2>
    49de:	f10b 3cff 	add.w	ip, fp, #4294967295	; 0xffffffff
    49e2:	f1c8 0308 	rsb	r3, r8, #8
    49e6:	f855 202c 	ldr.w	r2, [r5, ip, lsl #2]
    49ea:	fa42 f003 	asr.w	r0, r2, r3
    49ee:	fa00 f303 	lsl.w	r3, r0, r3
    49f2:	1ad3      	subs	r3, r2, r3
    49f4:	f845 302c 	str.w	r3, [r5, ip, lsl #2]
    49f8:	ee19 ca90 	vmov	ip, s19
    49fc:	4484      	add	ip, r0
    49fe:	f1c8 0207 	rsb	r2, r8, #7
    4a02:	ee09 ca90 	vmov	s19, ip
    4a06:	fa43 f202 	asr.w	r2, r3, r2
    4a0a:	2a00      	cmp	r2, #0
    4a0c:	dd31      	ble.n	4a72 <__kernel_rem_pio2f+0x1de>
    4a0e:	ee19 3a90 	vmov	r3, s19
    4a12:	f1bb 0f00 	cmp.w	fp, #0
    4a16:	f103 0301 	add.w	r3, r3, #1
    4a1a:	ee09 3a90 	vmov	s19, r3
    4a1e:	f340 8229 	ble.w	4e74 <__kernel_rem_pio2f+0x5e0>
    4a22:	6828      	ldr	r0, [r5, #0]
    4a24:	2800      	cmp	r0, #0
    4a26:	f040 8086 	bne.w	4b36 <__kernel_rem_pio2f+0x2a2>
    4a2a:	f1bb 0f01 	cmp.w	fp, #1
    4a2e:	d00b      	beq.n	4a48 <__kernel_rem_pio2f+0x1b4>
    4a30:	46ae      	mov	lr, r5
    4a32:	f04f 0c01 	mov.w	ip, #1
    4a36:	f85e 0f04 	ldr.w	r0, [lr, #4]!
    4a3a:	f10c 0301 	add.w	r3, ip, #1
    4a3e:	2800      	cmp	r0, #0
    4a40:	d17c      	bne.n	4b3c <__kernel_rem_pio2f+0x2a8>
    4a42:	459b      	cmp	fp, r3
    4a44:	469c      	mov	ip, r3
    4a46:	d1f6      	bne.n	4a36 <__kernel_rem_pio2f+0x1a2>
    4a48:	f1b8 0f00 	cmp.w	r8, #0
    4a4c:	dd0e      	ble.n	4a6c <__kernel_rem_pio2f+0x1d8>
    4a4e:	f1b8 0f01 	cmp.w	r8, #1
    4a52:	f000 8132 	beq.w	4cba <__kernel_rem_pio2f+0x426>
    4a56:	f1b8 0f02 	cmp.w	r8, #2
    4a5a:	d107      	bne.n	4a6c <__kernel_rem_pio2f+0x1d8>
    4a5c:	f10b 31ff 	add.w	r1, fp, #4294967295	; 0xffffffff
    4a60:	f855 3021 	ldr.w	r3, [r5, r1, lsl #2]
    4a64:	f003 033f 	and.w	r3, r3, #63	; 0x3f
    4a68:	f845 3021 	str.w	r3, [r5, r1, lsl #2]
    4a6c:	2a02      	cmp	r2, #2
    4a6e:	f000 8112 	beq.w	4c96 <__kernel_rem_pio2f+0x402>
    4a72:	eeb5 8a40 	vcmp.f32	s16, #0.0
    4a76:	eef1 fa10 	vmrs	APSR_nzcv, fpscr
    4a7a:	f040 8095 	bne.w	4ba8 <__kernel_rem_pio2f+0x314>
    4a7e:	9b00      	ldr	r3, [sp, #0]
    4a80:	f10b 3cff 	add.w	ip, fp, #4294967295	; 0xffffffff
    4a84:	4563      	cmp	r3, ip
    4a86:	dc0e      	bgt.n	4aa6 <__kernel_rem_pio2f+0x212>
    4a88:	f10b 4180 	add.w	r1, fp, #1073741824	; 0x40000000
    4a8c:	3901      	subs	r1, #1
    4a8e:	eb05 0181 	add.w	r1, r5, r1, lsl #2
    4a92:	2000      	movs	r0, #0
    4a94:	f851 3904 	ldr.w	r3, [r1], #-4
    4a98:	4551      	cmp	r1, sl
    4a9a:	ea40 0003 	orr.w	r0, r0, r3
    4a9e:	d1f9      	bne.n	4a94 <__kernel_rem_pio2f+0x200>
    4aa0:	2800      	cmp	r0, #0
    4aa2:	f040 8113 	bne.w	4ccc <__kernel_rem_pio2f+0x438>
    4aa6:	9b00      	ldr	r3, [sp, #0]
    4aa8:	3b01      	subs	r3, #1
    4aaa:	f855 3023 	ldr.w	r3, [r5, r3, lsl #2]
    4aae:	2b00      	cmp	r3, #0
    4ab0:	f040 8100 	bne.w	4cb4 <__kernel_rem_pio2f+0x420>
    4ab4:	9b04      	ldr	r3, [sp, #16]
    4ab6:	f04f 0c01 	mov.w	ip, #1
    4aba:	f853 2904 	ldr.w	r2, [r3], #-4
    4abe:	f10c 0c01 	add.w	ip, ip, #1
    4ac2:	2a00      	cmp	r2, #0
    4ac4:	d0f9      	beq.n	4aba <__kernel_rem_pio2f+0x226>
    4ac6:	44dc      	add	ip, fp
    4ac8:	f10b 0e01 	add.w	lr, fp, #1
    4acc:	45e6      	cmp	lr, ip
    4ace:	dc30      	bgt.n	4b32 <__kernel_rem_pio2f+0x29e>
    4ad0:	9b03      	ldr	r3, [sp, #12]
    4ad2:	9a02      	ldr	r2, [sp, #8]
    4ad4:	eb0e 0103 	add.w	r1, lr, r3
    4ad8:	445a      	add	r2, fp
    4ada:	eb03 0b0c 	add.w	fp, r3, ip
    4ade:	ab1a      	add	r3, sp, #104	; 0x68
    4ae0:	f101 4180 	add.w	r1, r1, #1073741824	; 0x40000000
    4ae4:	eb03 0282 	add.w	r2, r3, r2, lsl #2
    4ae8:	9b65      	ldr	r3, [sp, #404]	; 0x194
    4aea:	3901      	subs	r1, #1
    4aec:	eb03 0181 	add.w	r1, r3, r1, lsl #2
    4af0:	eb07 0e8e 	add.w	lr, r7, lr, lsl #2
    4af4:	eb03 0b8b 	add.w	fp, r3, fp, lsl #2
    4af8:	f851 3f04 	ldr.w	r3, [r1, #4]!
    4afc:	ed9f 7a1e 	vldr	s14, [pc, #120]	; 4b78 <__kernel_rem_pio2f+0x2e4>
    4b00:	ee07 3a90 	vmov	s15, r3
    4b04:	eef8 7ae7 	vcvt.f32.s32	s15, s15
    4b08:	4610      	mov	r0, r2
    4b0a:	f1b9 0f00 	cmp.w	r9, #0
    4b0e:	ece0 7a01 	vstmia	r0!, {s15}
    4b12:	db09      	blt.n	4b28 <__kernel_rem_pio2f+0x294>
    4b14:	4633      	mov	r3, r6
    4b16:	e001      	b.n	4b1c <__kernel_rem_pio2f+0x288>
    4b18:	ed72 7a01 	vldmdb	r2!, {s15}
    4b1c:	ecf3 6a01 	vldmia	r3!, {s13}
    4b20:	42a3      	cmp	r3, r4
    4b22:	eea6 7aa7 	vfma.f32	s14, s13, s15
    4b26:	d1f7      	bne.n	4b18 <__kernel_rem_pio2f+0x284>
    4b28:	4559      	cmp	r1, fp
    4b2a:	ecae 7a01 	vstmia	lr!, {s14}
    4b2e:	4602      	mov	r2, r0
    4b30:	d1e2      	bne.n	4af8 <__kernel_rem_pio2f+0x264>
    4b32:	46e3      	mov	fp, ip
    4b34:	e718      	b.n	4968 <__kernel_rem_pio2f+0xd4>
    4b36:	2301      	movs	r3, #1
    4b38:	f04f 0c00 	mov.w	ip, #0
    4b3c:	f5c0 7080 	rsb	r0, r0, #256	; 0x100
    4b40:	459b      	cmp	fp, r3
    4b42:	f845 002c 	str.w	r0, [r5, ip, lsl #2]
    4b46:	dd0c      	ble.n	4b62 <__kernel_rem_pio2f+0x2ce>
    4b48:	f855 0023 	ldr.w	r0, [r5, r3, lsl #2]
    4b4c:	4429      	add	r1, r5
    4b4e:	eb05 0383 	add.w	r3, r5, r3, lsl #2
    4b52:	e000      	b.n	4b56 <__kernel_rem_pio2f+0x2c2>
    4b54:	6818      	ldr	r0, [r3, #0]
    4b56:	f1c0 00ff 	rsb	r0, r0, #255	; 0xff
    4b5a:	f843 0b04 	str.w	r0, [r3], #4
    4b5e:	428b      	cmp	r3, r1
    4b60:	d1f8      	bne.n	4b54 <__kernel_rem_pio2f+0x2c0>
    4b62:	2001      	movs	r0, #1
    4b64:	e770      	b.n	4a48 <__kernel_rem_pio2f+0x1b4>
    4b66:	d10f      	bne.n	4b88 <__kernel_rem_pio2f+0x2f4>
    4b68:	f10b 33ff 	add.w	r3, fp, #4294967295	; 0xffffffff
    4b6c:	f855 2023 	ldr.w	r2, [r5, r3, lsl #2]
    4b70:	1212      	asrs	r2, r2, #8
    4b72:	e74a      	b.n	4a0a <__kernel_rem_pio2f+0x176>
    4b74:	000024d0 	ldrdeq	r2, [r0], -r0
    4b78:	00000000 	andeq	r0, r0, r0
    4b7c:	43800000 	orrmi	r0, r0, #0
    4b80:	3b800000 	blcc	fe004b88 <memset+0xfdfff978>
    4b84:	3fc90000 	svccc	0x00c90000
    4b88:	eef6 7a00 	vmov.f32	s15, #96	; 0x3f000000  0.5
    4b8c:	eeb4 8ae7 	vcmpe.f32	s16, s15
    4b90:	eef1 fa10 	vmrs	APSR_nzcv, fpscr
    4b94:	f280 8158 	bge.w	4e48 <__kernel_rem_pio2f+0x5b4>
    4b98:	eeb5 8a40 	vcmp.f32	s16, #0.0
    4b9c:	eef1 fa10 	vmrs	APSR_nzcv, fpscr
    4ba0:	f04f 0200 	mov.w	r2, #0
    4ba4:	f43f af6b 	beq.w	4a7e <__kernel_rem_pio2f+0x1ea>
    4ba8:	eeb0 0a48 	vmov.f32	s0, s16
    4bac:	f1c8 0000 	rsb	r0, r8, #0
    4bb0:	4691      	mov	r9, r2
    4bb2:	9e00      	ldr	r6, [sp, #0]
    4bb4:	f7ff fbc0 	bl	4338 <scalbnf>
    4bb8:	ed1f 7a10 	vldr	s14, [pc, #-64]	; 4b7c <__kernel_rem_pio2f+0x2e8>
    4bbc:	eeb4 0ac7 	vcmpe.f32	s0, s14
    4bc0:	eef1 fa10 	vmrs	APSR_nzcv, fpscr
    4bc4:	f2c0 8158 	blt.w	4e78 <__kernel_rem_pio2f+0x5e4>
    4bc8:	ed5f 7a13 	vldr	s15, [pc, #-76]	; 4b80 <__kernel_rem_pio2f+0x2ec>
    4bcc:	ee60 7a27 	vmul.f32	s15, s0, s15
    4bd0:	f10b 0301 	add.w	r3, fp, #1
    4bd4:	eefd 7ae7 	vcvt.s32.f32	s15, s15
    4bd8:	f108 0808 	add.w	r8, r8, #8
    4bdc:	eef8 7ae7 	vcvt.f32.s32	s15, s15
    4be0:	eea7 0ac7 	vfms.f32	s0, s15, s14
    4be4:	eefd 7ae7 	vcvt.s32.f32	s15, s15
    4be8:	eebd 0ac0 	vcvt.s32.f32	s0, s0
    4bec:	ee10 2a10 	vmov	r2, s0
    4bf0:	f845 202b 	str.w	r2, [r5, fp, lsl #2]
    4bf4:	ee17 2a90 	vmov	r2, s15
    4bf8:	f845 2023 	str.w	r2, [r5, r3, lsl #2]
    4bfc:	4640      	mov	r0, r8
    4bfe:	eeb7 0a00 	vmov.f32	s0, #112	; 0x3f800000  1.0
    4c02:	9300      	str	r3, [sp, #0]
    4c04:	f7ff fb98 	bl	4338 <scalbnf>
    4c08:	9b00      	ldr	r3, [sp, #0]
    4c0a:	2b00      	cmp	r3, #0
    4c0c:	f2c0 814b 	blt.w	4ea6 <__kernel_rem_pio2f+0x612>
    4c10:	0098      	lsls	r0, r3, #2
    4c12:	aa42      	add	r2, sp, #264	; 0x108
    4c14:	f100 0c04 	add.w	ip, r0, #4
    4c18:	ed1f 7a27 	vldr	s14, [pc, #-156]	; 4b80 <__kernel_rem_pio2f+0x2ec>
    4c1c:	4410      	add	r0, r2
    4c1e:	1d01      	adds	r1, r0, #4
    4c20:	eb05 020c 	add.w	r2, r5, ip
    4c24:	ed72 7a01 	vldmdb	r2!, {s15}
    4c28:	eef8 7ae7 	vcvt.f32.s32	s15, s15
    4c2c:	42aa      	cmp	r2, r5
    4c2e:	ee67 7a80 	vmul.f32	s15, s15, s0
    4c32:	ee20 0a07 	vmul.f32	s0, s0, s14
    4c36:	ed61 7a01 	vstmdb	r1!, {s15}
    4c3a:	d1f3      	bne.n	4c24 <__kernel_rem_pio2f+0x390>
    4c3c:	f10d 0eb8 	add.w	lr, sp, #184	; 0xb8
    4c40:	ed1f 6a30 	vldr	s12, [pc, #-192]	; 4b84 <__kernel_rem_pio2f+0x2f0>
    4c44:	4605      	mov	r5, r0
    4c46:	4677      	mov	r7, lr
    4c48:	f103 0801 	add.w	r8, r3, #1
    4c4c:	2400      	movs	r4, #0
    4c4e:	2e00      	cmp	r6, #0
    4c50:	f2c0 8105 	blt.w	4e5e <__kernel_rem_pio2f+0x5ca>
    4c54:	48a1      	ldr	r0, [pc, #644]	; (4edc <__kernel_rem_pio2f+0x648>)
    4c56:	eddf 7aa2 	vldr	s15, [pc, #648]	; 4ee0 <__kernel_rem_pio2f+0x64c>
    4c5a:	4629      	mov	r1, r5
    4c5c:	eeb0 7a46 	vmov.f32	s14, s12
    4c60:	2200      	movs	r2, #0
    4c62:	e003      	b.n	4c6c <__kernel_rem_pio2f+0x3d8>
    4c64:	42a2      	cmp	r2, r4
    4c66:	dc08      	bgt.n	4c7a <__kernel_rem_pio2f+0x3e6>
    4c68:	ecb0 7a01 	vldmia	r0!, {s14}
    4c6c:	ecf1 6a01 	vldmia	r1!, {s13}
    4c70:	3201      	adds	r2, #1
    4c72:	4296      	cmp	r6, r2
    4c74:	eee6 7a87 	vfma.f32	s15, s13, s14
    4c78:	daf4      	bge.n	4c64 <__kernel_rem_pio2f+0x3d0>
    4c7a:	3401      	adds	r4, #1
    4c7c:	4544      	cmp	r4, r8
    4c7e:	ece7 7a01 	vstmia	r7!, {s15}
    4c82:	f1a5 0504 	sub.w	r5, r5, #4
    4c86:	d1e2      	bne.n	4c4e <__kernel_rem_pio2f+0x3ba>
    4c88:	9a64      	ldr	r2, [sp, #400]	; 0x190
    4c8a:	2a03      	cmp	r2, #3
    4c8c:	d853      	bhi.n	4d36 <__kernel_rem_pio2f+0x4a2>
    4c8e:	e8df f002 	tbb	[pc, r2]
    4c92:	5bb6b6ca 	blpl	fedb27c2 <memset+0xfedad5b2>
    4c96:	eeb7 0a00 	vmov.f32	s0, #112	; 0x3f800000  1.0
    4c9a:	ee30 8a48 	vsub.f32	s16, s0, s16
    4c9e:	2800      	cmp	r0, #0
    4ca0:	f43f aee7 	beq.w	4a72 <__kernel_rem_pio2f+0x1de>
    4ca4:	4640      	mov	r0, r8
    4ca6:	9201      	str	r2, [sp, #4]
    4ca8:	f7ff fb46 	bl	4338 <scalbnf>
    4cac:	9a01      	ldr	r2, [sp, #4]
    4cae:	ee38 8a40 	vsub.f32	s16, s16, s0
    4cb2:	e6de      	b.n	4a72 <__kernel_rem_pio2f+0x1de>
    4cb4:	f04f 0c01 	mov.w	ip, #1
    4cb8:	e705      	b.n	4ac6 <__kernel_rem_pio2f+0x232>
    4cba:	f10b 31ff 	add.w	r1, fp, #4294967295	; 0xffffffff
    4cbe:	f855 3021 	ldr.w	r3, [r5, r1, lsl #2]
    4cc2:	f003 037f 	and.w	r3, r3, #127	; 0x7f
    4cc6:	f845 3021 	str.w	r3, [r5, r1, lsl #2]
    4cca:	e6cf      	b.n	4a6c <__kernel_rem_pio2f+0x1d8>
    4ccc:	4691      	mov	r9, r2
    4cce:	f855 202c 	ldr.w	r2, [r5, ip, lsl #2]
    4cd2:	9e00      	ldr	r6, [sp, #0]
    4cd4:	4663      	mov	r3, ip
    4cd6:	f1a8 0808 	sub.w	r8, r8, #8
    4cda:	2a00      	cmp	r2, #0
    4cdc:	d18e      	bne.n	4bfc <__kernel_rem_pio2f+0x368>
    4cde:	f10c 4280 	add.w	r2, ip, #1073741824	; 0x40000000
    4ce2:	3a01      	subs	r2, #1
    4ce4:	eb05 0282 	add.w	r2, r5, r2, lsl #2
    4ce8:	f852 1904 	ldr.w	r1, [r2], #-4
    4cec:	3b01      	subs	r3, #1
    4cee:	f1a8 0808 	sub.w	r8, r8, #8
    4cf2:	2900      	cmp	r1, #0
    4cf4:	d0f8      	beq.n	4ce8 <__kernel_rem_pio2f+0x454>
    4cf6:	e781      	b.n	4bfc <__kernel_rem_pio2f+0x368>
    4cf8:	464a      	mov	r2, r9
    4cfa:	eddf 7a79 	vldr	s15, [pc, #484]	; 4ee0 <__kernel_rem_pio2f+0x64c>
    4cfe:	2a00      	cmp	r2, #0
    4d00:	f040 80c2 	bne.w	4e88 <__kernel_rem_pio2f+0x5f4>
    4d04:	ed9d 7a2e 	vldr	s14, [sp, #184]	; 0xb8
    4d08:	9a05      	ldr	r2, [sp, #20]
    4d0a:	2b00      	cmp	r3, #0
    4d0c:	edc2 7a00 	vstr	s15, [r2]
    4d10:	ee77 7a67 	vsub.f32	s15, s14, s15
    4d14:	dd0c      	ble.n	4d30 <__kernel_rem_pio2f+0x49c>
    4d16:	a92f      	add	r1, sp, #188	; 0xbc
    4d18:	2201      	movs	r2, #1
    4d1a:	ecb1 7a01 	vldmia	r1!, {s14}
    4d1e:	3201      	adds	r2, #1
    4d20:	4293      	cmp	r3, r2
    4d22:	ee77 7a87 	vadd.f32	s15, s15, s14
    4d26:	daf8      	bge.n	4d1a <__kernel_rem_pio2f+0x486>
    4d28:	464b      	mov	r3, r9
    4d2a:	2b00      	cmp	r3, #0
    4d2c:	f040 80b8 	bne.w	4ea0 <__kernel_rem_pio2f+0x60c>
    4d30:	9b05      	ldr	r3, [sp, #20]
    4d32:	edc3 7a01 	vstr	s15, [r3, #4]
    4d36:	ee19 3a90 	vmov	r3, s19
    4d3a:	f003 0007 	and.w	r0, r3, #7
    4d3e:	b057      	add	sp, #348	; 0x15c
    4d40:	ecbd 8b04 	vpop	{d8-d9}
    4d44:	e8bd 8ff0 	ldmia.w	sp!, {r4, r5, r6, r7, r8, r9, sl, fp, pc}
    4d48:	2b00      	cmp	r3, #0
    4d4a:	f340 80c4 	ble.w	4ed6 <__kernel_rem_pio2f+0x642>
    4d4e:	0098      	lsls	r0, r3, #2
    4d50:	aa56      	add	r2, sp, #344	; 0x158
    4d52:	4402      	add	r2, r0
    4d54:	f10d 0eb8 	add.w	lr, sp, #184	; 0xb8
    4d58:	f103 4180 	add.w	r1, r3, #1073741824	; 0x40000000
    4d5c:	ed52 6a28 	vldr	s13, [r2, #-160]	; 0xffffff60
    4d60:	3901      	subs	r1, #1
    4d62:	eb0e 0283 	add.w	r2, lr, r3, lsl #2
    4d66:	ed72 7a01 	vldmdb	r2!, {s15}
    4d6a:	ee37 7aa6 	vadd.f32	s14, s15, s13
    4d6e:	4596      	cmp	lr, r2
    4d70:	ee77 7ac7 	vsub.f32	s15, s15, s14
    4d74:	ed82 7a00 	vstr	s14, [r2]
    4d78:	ee77 7aa6 	vadd.f32	s15, s15, s13
    4d7c:	eef0 6a47 	vmov.f32	s13, s14
    4d80:	edc2 7a01 	vstr	s15, [r2, #4]
    4d84:	d1ef      	bne.n	4d66 <__kernel_rem_pio2f+0x4d2>
    4d86:	2b01      	cmp	r3, #1
    4d88:	f340 80a5 	ble.w	4ed6 <__kernel_rem_pio2f+0x642>
    4d8c:	ab56      	add	r3, sp, #344	; 0x158
    4d8e:	4418      	add	r0, r3
    4d90:	0089      	lsls	r1, r1, #2
    4d92:	1d0b      	adds	r3, r1, #4
    4d94:	ed50 6a28 	vldr	s13, [r0, #-160]	; 0xffffff60
    4d98:	4473      	add	r3, lr
    4d9a:	aa2f      	add	r2, sp, #188	; 0xbc
    4d9c:	ed73 7a01 	vldmdb	r3!, {s15}
    4da0:	ee37 7aa6 	vadd.f32	s14, s15, s13
    4da4:	429a      	cmp	r2, r3
    4da6:	ee77 7ac7 	vsub.f32	s15, s15, s14
    4daa:	ed83 7a00 	vstr	s14, [r3]
    4dae:	ee77 7aa6 	vadd.f32	s15, s15, s13
    4db2:	eef0 6a47 	vmov.f32	s13, s14
    4db6:	edc3 7a01 	vstr	s15, [r3, #4]
    4dba:	d1ef      	bne.n	4d9c <__kernel_rem_pio2f+0x508>
    4dbc:	3108      	adds	r1, #8
    4dbe:	eddf 7a48 	vldr	s15, [pc, #288]	; 4ee0 <__kernel_rem_pio2f+0x64c>
    4dc2:	eb0e 0301 	add.w	r3, lr, r1
    4dc6:	f10e 0e08 	add.w	lr, lr, #8
    4dca:	ed33 7a01 	vldmdb	r3!, {s14}
    4dce:	459e      	cmp	lr, r3
    4dd0:	ee77 7a87 	vadd.f32	s15, s15, s14
    4dd4:	d1f9      	bne.n	4dca <__kernel_rem_pio2f+0x536>
    4dd6:	464b      	mov	r3, r9
    4dd8:	eddd 6a2e 	vldr	s13, [sp, #184]	; 0xb8
    4ddc:	ed9d 7a2f 	vldr	s14, [sp, #188]	; 0xbc
    4de0:	b12b      	cbz	r3, 4dee <__kernel_rem_pio2f+0x55a>
    4de2:	eef1 6a66 	vneg.f32	s13, s13
    4de6:	eeb1 7a47 	vneg.f32	s14, s14
    4dea:	eef1 7a67 	vneg.f32	s15, s15
    4dee:	9b05      	ldr	r3, [sp, #20]
    4df0:	edc3 6a00 	vstr	s13, [r3]
    4df4:	ed83 7a01 	vstr	s14, [r3, #4]
    4df8:	edc3 7a02 	vstr	s15, [r3, #8]
    4dfc:	e79b      	b.n	4d36 <__kernel_rem_pio2f+0x4a2>
    4dfe:	2b00      	cmp	r3, #0
    4e00:	f6ff af7a 	blt.w	4cf8 <__kernel_rem_pio2f+0x464>
    4e04:	a92e      	add	r1, sp, #184	; 0xb8
    4e06:	eb01 0283 	add.w	r2, r1, r3, lsl #2
    4e0a:	eddf 7a35 	vldr	s15, [pc, #212]	; 4ee0 <__kernel_rem_pio2f+0x64c>
    4e0e:	3204      	adds	r2, #4
    4e10:	ed32 7a01 	vldmdb	r2!, {s14}
    4e14:	4291      	cmp	r1, r2
    4e16:	ee77 7a87 	vadd.f32	s15, s15, s14
    4e1a:	d1f9      	bne.n	4e10 <__kernel_rem_pio2f+0x57c>
    4e1c:	464a      	mov	r2, r9
    4e1e:	2a00      	cmp	r2, #0
    4e20:	f43f af70 	beq.w	4d04 <__kernel_rem_pio2f+0x470>
    4e24:	e030      	b.n	4e88 <__kernel_rem_pio2f+0x5f4>
    4e26:	eddf 7a2e 	vldr	s15, [pc, #184]	; 4ee0 <__kernel_rem_pio2f+0x64c>
    4e2a:	44f4      	add	ip, lr
    4e2c:	ed3c 7a01 	vldmdb	ip!, {s14}
    4e30:	45e6      	cmp	lr, ip
    4e32:	ee77 7a87 	vadd.f32	s15, s15, s14
    4e36:	d1f9      	bne.n	4e2c <__kernel_rem_pio2f+0x598>
    4e38:	464b      	mov	r3, r9
    4e3a:	b10b      	cbz	r3, 4e40 <__kernel_rem_pio2f+0x5ac>
    4e3c:	eef1 7a67 	vneg.f32	s15, s15
    4e40:	9b05      	ldr	r3, [sp, #20]
    4e42:	edc3 7a00 	vstr	s15, [r3]
    4e46:	e776      	b.n	4d36 <__kernel_rem_pio2f+0x4a2>
    4e48:	ee19 3a90 	vmov	r3, s19
    4e4c:	f1bb 0f00 	cmp.w	fp, #0
    4e50:	f103 0301 	add.w	r3, r3, #1
    4e54:	ee09 3a90 	vmov	s19, r3
    4e58:	dd37      	ble.n	4eca <__kernel_rem_pio2f+0x636>
    4e5a:	2202      	movs	r2, #2
    4e5c:	e5e1      	b.n	4a22 <__kernel_rem_pio2f+0x18e>
    4e5e:	eddf 7a20 	vldr	s15, [pc, #128]	; 4ee0 <__kernel_rem_pio2f+0x64c>
    4e62:	3401      	adds	r4, #1
    4e64:	4544      	cmp	r4, r8
    4e66:	ece7 7a01 	vstmia	r7!, {s15}
    4e6a:	f1a5 0504 	sub.w	r5, r5, #4
    4e6e:	f47f aeee 	bne.w	4c4e <__kernel_rem_pio2f+0x3ba>
    4e72:	e709      	b.n	4c88 <__kernel_rem_pio2f+0x3f4>
    4e74:	2000      	movs	r0, #0
    4e76:	e5e7      	b.n	4a48 <__kernel_rem_pio2f+0x1b4>
    4e78:	eebd 0ac0 	vcvt.s32.f32	s0, s0
    4e7c:	465b      	mov	r3, fp
    4e7e:	ee10 2a10 	vmov	r2, s0
    4e82:	f845 202b 	str.w	r2, [r5, fp, lsl #2]
    4e86:	e6b9      	b.n	4bfc <__kernel_rem_pio2f+0x368>
    4e88:	eddd 6a2e 	vldr	s13, [sp, #184]	; 0xb8
    4e8c:	9a05      	ldr	r2, [sp, #20]
    4e8e:	eeb1 7a67 	vneg.f32	s14, s15
    4e92:	2b00      	cmp	r3, #0
    4e94:	ee76 7ae7 	vsub.f32	s15, s13, s15
    4e98:	ed82 7a00 	vstr	s14, [r2]
    4e9c:	f73f af3b 	bgt.w	4d16 <__kernel_rem_pio2f+0x482>
    4ea0:	eef1 7a67 	vneg.f32	s15, s15
    4ea4:	e744      	b.n	4d30 <__kernel_rem_pio2f+0x49c>
    4ea6:	9a64      	ldr	r2, [sp, #400]	; 0x190
    4ea8:	2a03      	cmp	r2, #3
    4eaa:	f63f af44 	bhi.w	4d36 <__kernel_rem_pio2f+0x4a2>
    4eae:	a101      	add	r1, pc, #4	; (adr r1, 4eb4 <__kernel_rem_pio2f+0x620>)
    4eb0:	f851 f022 	ldr.w	pc, [r1, r2, lsl #2]
    4eb4:	00004ec5 	andeq	r4, r0, r5, asr #29
    4eb8:	00004dff 	strdeq	r4, [r0], -pc	; <UNPREDICTABLE>
    4ebc:	00004dff 	strdeq	r4, [r0], -pc	; <UNPREDICTABLE>
    4ec0:	00004d49 	andeq	r4, r0, r9, asr #26
    4ec4:	eddf 7a06 	vldr	s15, [pc, #24]	; 4ee0 <__kernel_rem_pio2f+0x64c>
    4ec8:	e7b6      	b.n	4e38 <__kernel_rem_pio2f+0x5a4>
    4eca:	eef7 7a00 	vmov.f32	s15, #112	; 0x3f800000  1.0
    4ece:	ee37 8ac8 	vsub.f32	s16, s15, s16
    4ed2:	2202      	movs	r2, #2
    4ed4:	e5cd      	b.n	4a72 <__kernel_rem_pio2f+0x1de>
    4ed6:	eddf 7a02 	vldr	s15, [pc, #8]	; 4ee0 <__kernel_rem_pio2f+0x64c>
    4eda:	e77c      	b.n	4dd6 <__kernel_rem_pio2f+0x542>
    4edc:	000024a4 	andeq	r2, r0, r4, lsr #9
    4ee0:	00000000 	andeq	r0, r0, r0

Disassembly of section .text.__kernel_sinf:

00004ee4 <__kernel_sinf>:
    4ee4:	ee10 3a10 	vmov	r3, s0
    4ee8:	f023 4300 	bic.w	r3, r3, #2147483648	; 0x80000000
    4eec:	f1b3 5f48 	cmp.w	r3, #838860800	; 0x32000000
    4ef0:	da04      	bge.n	4efc <__kernel_sinf+0x18>
    4ef2:	eefd 7ac0 	vcvt.s32.f32	s15, s0
    4ef6:	ee17 3a90 	vmov	r3, s15
    4efa:	b323      	cbz	r3, 4f46 <__kernel_sinf+0x62>
    4efc:	ee60 7a00 	vmul.f32	s15, s0, s0
    4f00:	ed9f 5a15 	vldr	s10, [pc, #84]	; 4f58 <__kernel_sinf+0x74>
    4f04:	eddf 5a15 	vldr	s11, [pc, #84]	; 4f5c <__kernel_sinf+0x78>
    4f08:	ed9f 6a15 	vldr	s12, [pc, #84]	; 4f60 <__kernel_sinf+0x7c>
    4f0c:	eddf 6a15 	vldr	s13, [pc, #84]	; 4f64 <__kernel_sinf+0x80>
    4f10:	ed9f 7a15 	vldr	s14, [pc, #84]	; 4f68 <__kernel_sinf+0x84>
    4f14:	eee7 5a85 	vfma.f32	s11, s15, s10
    4f18:	ee20 5a27 	vmul.f32	s10, s0, s15
    4f1c:	eea5 6aa7 	vfma.f32	s12, s11, s15
    4f20:	eee6 6a27 	vfma.f32	s13, s12, s15
    4f24:	eea6 7aa7 	vfma.f32	s14, s13, s15
    4f28:	b170      	cbz	r0, 4f48 <__kernel_sinf+0x64>
    4f2a:	ee27 7a45 	vnmul.f32	s14, s14, s10
    4f2e:	eef6 6a00 	vmov.f32	s13, #96	; 0x3f000000  0.5
    4f32:	eea0 7aa6 	vfma.f32	s14, s1, s13
    4f36:	eddf 6a0d 	vldr	s13, [pc, #52]	; 4f6c <__kernel_sinf+0x88>
    4f3a:	eed7 0a27 	vfnms.f32	s1, s14, s15
    4f3e:	eee5 0a26 	vfma.f32	s1, s10, s13
    4f42:	ee30 0a60 	vsub.f32	s0, s0, s1
    4f46:	4770      	bx	lr
    4f48:	eddf 6a09 	vldr	s13, [pc, #36]	; 4f70 <__kernel_sinf+0x8c>
    4f4c:	eee7 6a87 	vfma.f32	s13, s15, s14
    4f50:	eea6 0a85 	vfma.f32	s0, s13, s10
    4f54:	4770      	bx	lr
    4f56:	bf00      	nop
    4f58:	2f2ec9d3 	svccs	0x002ec9d3
    4f5c:	b2d72f34 	sbcslt	r2, r7, #52, 30	; 0xd0
    4f60:	3638ef1b 	shadd16cc	lr, r8, fp
    4f64:	b9500d01 	ldmdblt	r0, {r0, r8, sl, fp}^
    4f68:	3c088889 	stccc	8, cr8, [r8], {137}	; 0x89
    4f6c:	3e2aaaab 	vmulcc.f32	s20, s21, s23
    4f70:	be2aaaab 	vmullt.f32	s20, s21, s23

Disassembly of section .text.__kernel_tanf:

00004f74 <__kernel_tanf>:
    4f74:	b508      	push	{r3, lr}
    4f76:	ee10 3a10 	vmov	r3, s0
    4f7a:	f023 4200 	bic.w	r2, r3, #2147483648	; 0x80000000
    4f7e:	f1b2 5f46 	cmp.w	r2, #830472192	; 0x31800000
    4f82:	ed2d 8b02 	vpush	{d8}
    4f86:	eeb0 7a40 	vmov.f32	s14, s0
    4f8a:	da11      	bge.n	4fb0 <__kernel_tanf+0x3c>
    4f8c:	eefd 7ac0 	vcvt.s32.f32	s15, s0
    4f90:	ee17 1a90 	vmov	r1, s15
    4f94:	bb09      	cbnz	r1, 4fda <__kernel_tanf+0x66>
    4f96:	1c43      	adds	r3, r0, #1
    4f98:	4313      	orrs	r3, r2
    4f9a:	f000 80a3 	beq.w	50e4 <__kernel_tanf+0x170>
    4f9e:	2801      	cmp	r0, #1
    4fa0:	d07d      	beq.n	509e <__kernel_tanf+0x12a>
    4fa2:	ecbd 8b02 	vpop	{d8}
    4fa6:	eeff 7a00 	vmov.f32	s15, #240	; 0xbf800000 -1.0
    4faa:	ee87 0a87 	vdiv.f32	s0, s15, s14
    4fae:	bd08      	pop	{r3, pc}
    4fb0:	4950      	ldr	r1, [pc, #320]	; (50f4 <__kernel_tanf+0x180>)
    4fb2:	428a      	cmp	r2, r1
    4fb4:	dd11      	ble.n	4fda <__kernel_tanf+0x66>
    4fb6:	2b00      	cmp	r3, #0
    4fb8:	eddf 7a4f 	vldr	s15, [pc, #316]	; 50f8 <__kernel_tanf+0x184>
    4fbc:	eddf 6a4f 	vldr	s13, [pc, #316]	; 50fc <__kernel_tanf+0x188>
    4fc0:	bfbc      	itt	lt
    4fc2:	eef1 0a60 	vneglt.f32	s1, s1
    4fc6:	eeb1 7a40 	vneglt.f32	s14, s0
    4fca:	ee37 7ac7 	vsub.f32	s14, s15, s14
    4fce:	ee76 7ae0 	vsub.f32	s15, s13, s1
    4fd2:	eddf 0a4b 	vldr	s1, [pc, #300]	; 5100 <__kernel_tanf+0x18c>
    4fd6:	ee37 7a87 	vadd.f32	s14, s15, s14
    4fda:	ee67 6a07 	vmul.f32	s13, s14, s14
    4fde:	ed9f 0a49 	vldr	s0, [pc, #292]	; 5104 <__kernel_tanf+0x190>
    4fe2:	ed9f 2a49 	vldr	s4, [pc, #292]	; 5108 <__kernel_tanf+0x194>
    4fe6:	ed9f 8a49 	vldr	s16, [pc, #292]	; 510c <__kernel_tanf+0x198>
    4fea:	eddf 1a49 	vldr	s3, [pc, #292]	; 5110 <__kernel_tanf+0x19c>
    4fee:	ed9f 3a49 	vldr	s6, [pc, #292]	; 5114 <__kernel_tanf+0x1a0>
    4ff2:	eddf 2a49 	vldr	s5, [pc, #292]	; 5118 <__kernel_tanf+0x1a4>
    4ff6:	ed9f 4a49 	vldr	s8, [pc, #292]	; 511c <__kernel_tanf+0x1a8>
    4ffa:	eddf 3a49 	vldr	s7, [pc, #292]	; 5120 <__kernel_tanf+0x1ac>
    4ffe:	ed9f 5a49 	vldr	s10, [pc, #292]	; 5124 <__kernel_tanf+0x1b0>
    5002:	eddf 4a49 	vldr	s9, [pc, #292]	; 5128 <__kernel_tanf+0x1b4>
    5006:	ed9f 6a49 	vldr	s12, [pc, #292]	; 512c <__kernel_tanf+0x1b8>
    500a:	eddf 5a49 	vldr	s11, [pc, #292]	; 5130 <__kernel_tanf+0x1bc>
    500e:	ed9f 1a49 	vldr	s2, [pc, #292]	; 5134 <__kernel_tanf+0x1c0>
    5012:	4938      	ldr	r1, [pc, #224]	; (50f4 <__kernel_tanf+0x180>)
    5014:	ee66 7aa6 	vmul.f32	s15, s13, s13
    5018:	428a      	cmp	r2, r1
    501a:	eea7 2a80 	vfma.f32	s4, s15, s0
    501e:	eee7 1a88 	vfma.f32	s3, s15, s16
    5022:	eea2 3a27 	vfma.f32	s6, s4, s15
    5026:	eee1 2aa7 	vfma.f32	s5, s3, s15
    502a:	eea3 4a27 	vfma.f32	s8, s6, s15
    502e:	eee2 3aa7 	vfma.f32	s7, s5, s15
    5032:	eea4 5a27 	vfma.f32	s10, s8, s15
    5036:	eee3 4aa7 	vfma.f32	s9, s7, s15
    503a:	eea5 6a27 	vfma.f32	s12, s10, s15
    503e:	eee4 5aa7 	vfma.f32	s11, s9, s15
    5042:	eef0 7a46 	vmov.f32	s15, s12
    5046:	eee5 7aa6 	vfma.f32	s15, s11, s13
    504a:	ee27 6a26 	vmul.f32	s12, s14, s13
    504e:	eef0 5a60 	vmov.f32	s11, s1
    5052:	eee7 5a86 	vfma.f32	s11, s15, s12
    5056:	eee5 0aa6 	vfma.f32	s1, s11, s13
    505a:	eee6 0a01 	vfma.f32	s1, s12, s2
    505e:	ee37 0a20 	vadd.f32	s0, s14, s1
    5062:	dc1f      	bgt.n	50a4 <__kernel_tanf+0x130>
    5064:	2801      	cmp	r0, #1
    5066:	d01a      	beq.n	509e <__kernel_tanf+0x12a>
    5068:	eeff 7a00 	vmov.f32	s15, #240	; 0xbf800000 -1.0
    506c:	eec7 6a80 	vdiv.f32	s13, s15, s0
    5070:	4b31      	ldr	r3, [pc, #196]	; (5138 <__kernel_tanf+0x1c4>)
    5072:	ee10 2a10 	vmov	r2, s0
    5076:	401a      	ands	r2, r3
    5078:	ee06 2a10 	vmov	s12, r2
    507c:	ee16 2a90 	vmov	r2, s13
    5080:	4013      	ands	r3, r2
    5082:	ee00 3a10 	vmov	s0, r3
    5086:	eef7 7a00 	vmov.f32	s15, #112	; 0x3f800000  1.0
    508a:	eee6 7a00 	vfma.f32	s15, s12, s0
    508e:	ee36 7a47 	vsub.f32	s14, s12, s14
    5092:	ee70 0ac7 	vsub.f32	s1, s1, s14
    5096:	eee0 7a20 	vfma.f32	s15, s0, s1
    509a:	eea7 0aa6 	vfma.f32	s0, s15, s13
    509e:	ecbd 8b02 	vpop	{d8}
    50a2:	bd08      	pop	{r3, pc}
    50a4:	ee07 0a90 	vmov	s15, r0
    50a8:	eef8 6ae7 	vcvt.f32.s32	s13, s15
    50ac:	ee60 5a00 	vmul.f32	s11, s0, s0
    50b0:	ee70 7a26 	vadd.f32	s15, s0, s13
    50b4:	179b      	asrs	r3, r3, #30
    50b6:	ee85 6aa7 	vdiv.f32	s12, s11, s15
    50ba:	f003 0302 	and.w	r3, r3, #2
    50be:	f1c3 0301 	rsb	r3, r3, #1
    50c2:	ecbd 8b02 	vpop	{d8}
    50c6:	eef0 5a00 	vmov.f32	s11, #0	; 0x40000000  2.0
    50ca:	ee76 0a60 	vsub.f32	s1, s12, s1
    50ce:	ee07 3a90 	vmov	s15, r3
    50d2:	ee37 7a60 	vsub.f32	s14, s14, s1
    50d6:	eef8 7ae7 	vcvt.f32.s32	s15, s15
    50da:	eee7 6a65 	vfms.f32	s13, s14, s11
    50de:	ee26 0aa7 	vmul.f32	s0, s13, s15
    50e2:	bd08      	pop	{r3, pc}
    50e4:	f000 f836 	bl	5154 <fabsf>
    50e8:	eef7 7a00 	vmov.f32	s15, #112	; 0x3f800000  1.0
    50ec:	ee87 0a80 	vdiv.f32	s0, s15, s0
    50f0:	e7d5      	b.n	509e <__kernel_tanf+0x12a>
    50f2:	bf00      	nop
    50f4:	3f2ca13f 	svccc	0x002ca13f
    50f8:	3f490fda 	svccc	0x00490fda
    50fc:	33222168 			; <UNDEFINED> instruction: 0x33222168
    5100:	00000000 	andeq	r0, r0, r0
    5104:	b79bae5f 			; <UNDEFINED> instruction: 0xb79bae5f
    5108:	38a3f445 	stmiacc	r3!, {r0, r2, r6, sl, ip, sp, lr, pc}
    510c:	37d95384 	ldrbcc	r5, [r9, r4, lsl #7]
    5110:	3895c07a 	ldmcc	r5, {r1, r3, r4, r5, r6, lr, pc}
    5114:	3a1a26c8 	bcc	68ec3c <memset+0x689a2c>
    5118:	398137b9 	stmibcc	r1, {r0, r3, r4, r5, r7, r8, r9, sl, ip, sp}
    511c:	3b6b6916 	blcc	1adf57c <memset+0x1ada36c>
    5120:	3abede48 	bcc	fefbca48 <memset+0xfefb7838>
    5124:	3cb327a4 	ldccc	7, cr2, [r3], #656	; 0x290
    5128:	3c11371f 	ldccc	7, cr3, [r1], {31}
    512c:	3e088889 	cdpcc	8, 0, cr8, cr8, cr9, {4}
    5130:	3d5d0dd1 	ldclcc	13, cr0, [sp, #-836]	; 0xfffffcbc
    5134:	3eaaaaab 	vfmacc.f32	s20, s21, s23
    5138:	fffff000 			; <UNDEFINED> instruction: 0xfffff000

Disassembly of section .text.copysignf:

0000513c <copysignf>:
    513c:	ee10 3a10 	vmov	r3, s0
    5140:	ee10 2a90 	vmov	r2, s1
    5144:	f023 4300 	bic.w	r3, r3, #2147483648	; 0x80000000
    5148:	f002 4200 	and.w	r2, r2, #2147483648	; 0x80000000
    514c:	4313      	orrs	r3, r2
    514e:	ee00 3a10 	vmov	s0, r3
    5152:	4770      	bx	lr

Disassembly of section .text.fabsf:

00005154 <fabsf>:
    5154:	ee10 3a10 	vmov	r3, s0
    5158:	f023 4300 	bic.w	r3, r3, #2147483648	; 0x80000000
    515c:	ee00 3a10 	vmov	s0, r3
    5160:	4770      	bx	lr
    5162:	bf00      	nop

Disassembly of section .text.finitef:

00005164 <finitef>:
    5164:	ee10 3a10 	vmov	r3, s0
    5168:	f023 4000 	bic.w	r0, r3, #2147483648	; 0x80000000
    516c:	f1b0 4fff 	cmp.w	r0, #2139095040	; 0x7f800000
    5170:	bfac      	ite	ge
    5172:	2000      	movge	r0, #0
    5174:	2001      	movlt	r0, #1
    5176:	4770      	bx	lr

Disassembly of section .text.floorf:

00005178 <floorf>:
    5178:	ee10 2a10 	vmov	r2, s0
    517c:	f022 4100 	bic.w	r1, r2, #2147483648	; 0x80000000
    5180:	0dcb      	lsrs	r3, r1, #23
    5182:	3b7f      	subs	r3, #127	; 0x7f
    5184:	2b16      	cmp	r3, #22
    5186:	dc1c      	bgt.n	51c2 <floorf+0x4a>
    5188:	2b00      	cmp	r3, #0
    518a:	ee10 0a10 	vmov	r0, s0
    518e:	db1e      	blt.n	51ce <floorf+0x56>
    5190:	4919      	ldr	r1, [pc, #100]	; (51f8 <floorf+0x80>)
    5192:	4119      	asrs	r1, r3
    5194:	420a      	tst	r2, r1
    5196:	d027      	beq.n	51e8 <floorf+0x70>
    5198:	eddf 7a18 	vldr	s15, [pc, #96]	; 51fc <floorf+0x84>
    519c:	ee70 7a27 	vadd.f32	s15, s0, s15
    51a0:	eef5 7ac0 	vcmpe.f32	s15, #0.0
    51a4:	eef1 fa10 	vmrs	APSR_nzcv, fpscr
    51a8:	dd1e      	ble.n	51e8 <floorf+0x70>
    51aa:	2a00      	cmp	r2, #0
    51ac:	da04      	bge.n	51b8 <floorf+0x40>
    51ae:	f44f 0200 	mov.w	r2, #8388608	; 0x800000
    51b2:	fa42 f303 	asr.w	r3, r2, r3
    51b6:	4418      	add	r0, r3
    51b8:	ea20 0301 	bic.w	r3, r0, r1
    51bc:	ee00 3a10 	vmov	s0, r3
    51c0:	4770      	bx	lr
    51c2:	f1b1 4fff 	cmp.w	r1, #2139095040	; 0x7f800000
    51c6:	d30f      	bcc.n	51e8 <floorf+0x70>
    51c8:	ee30 0a00 	vadd.f32	s0, s0, s0
    51cc:	4770      	bx	lr
    51ce:	eddf 7a0b 	vldr	s15, [pc, #44]	; 51fc <floorf+0x84>
    51d2:	ee70 7a27 	vadd.f32	s15, s0, s15
    51d6:	eef5 7ac0 	vcmpe.f32	s15, #0.0
    51da:	eef1 fa10 	vmrs	APSR_nzcv, fpscr
    51de:	dd03      	ble.n	51e8 <floorf+0x70>
    51e0:	2a00      	cmp	r2, #0
    51e2:	db02      	blt.n	51ea <floorf+0x72>
    51e4:	ed9f 0a06 	vldr	s0, [pc, #24]	; 5200 <floorf+0x88>
    51e8:	4770      	bx	lr
    51ea:	2900      	cmp	r1, #0
    51ec:	eeff 7a00 	vmov.f32	s15, #240	; 0xbf800000 -1.0
    51f0:	bf18      	it	ne
    51f2:	eeb0 0a67 	vmovne.f32	s0, s15
    51f6:	4770      	bx	lr
    51f8:	007fffff 	ldrshteq	pc, [pc], #-255	; <UNPREDICTABLE>
    51fc:	7149f2ca 	smlalbtvc	pc, r9, sl, r2	; <UNPREDICTABLE>
    5200:	00000000 	andeq	r0, r0, r0

Disassembly of section .text.__errno:

00005204 <__errno>:
    5204:	4b01      	ldr	r3, [pc, #4]	; (520c <__errno+0x8>)
    5206:	6818      	ldr	r0, [r3, #0]
    5208:	4770      	bx	lr
    520a:	bf00      	nop
    520c:	00001b34 	andeq	r1, r0, r4, lsr fp

Disassembly of section .text.memset:

00005210 <memset>:
    5210:	b4f0      	push	{r4, r5, r6, r7}
    5212:	0786      	lsls	r6, r0, #30
    5214:	d043      	beq.n	529e <memset+0x8e>
    5216:	1e54      	subs	r4, r2, #1
    5218:	2a00      	cmp	r2, #0
    521a:	d03e      	beq.n	529a <memset+0x8a>
    521c:	b2ca      	uxtb	r2, r1
    521e:	4603      	mov	r3, r0
    5220:	e002      	b.n	5228 <memset+0x18>
    5222:	f114 34ff 	adds.w	r4, r4, #4294967295	; 0xffffffff
    5226:	d338      	bcc.n	529a <memset+0x8a>
    5228:	f803 2b01 	strb.w	r2, [r3], #1
    522c:	079d      	lsls	r5, r3, #30
    522e:	d1f8      	bne.n	5222 <memset+0x12>
    5230:	2c03      	cmp	r4, #3
    5232:	d92b      	bls.n	528c <memset+0x7c>
    5234:	b2cd      	uxtb	r5, r1
    5236:	ea45 2505 	orr.w	r5, r5, r5, lsl #8
    523a:	2c0f      	cmp	r4, #15
    523c:	ea45 4505 	orr.w	r5, r5, r5, lsl #16
    5240:	d916      	bls.n	5270 <memset+0x60>
    5242:	f1a4 0710 	sub.w	r7, r4, #16
    5246:	093f      	lsrs	r7, r7, #4
    5248:	f103 0620 	add.w	r6, r3, #32
    524c:	eb06 1607 	add.w	r6, r6, r7, lsl #4
    5250:	f103 0210 	add.w	r2, r3, #16
    5254:	e942 5504 	strd	r5, r5, [r2, #-16]
    5258:	e942 5502 	strd	r5, r5, [r2, #-8]
    525c:	3210      	adds	r2, #16
    525e:	42b2      	cmp	r2, r6
    5260:	d1f8      	bne.n	5254 <memset+0x44>
    5262:	f004 040f 	and.w	r4, r4, #15
    5266:	3701      	adds	r7, #1
    5268:	2c03      	cmp	r4, #3
    526a:	eb03 1307 	add.w	r3, r3, r7, lsl #4
    526e:	d90d      	bls.n	528c <memset+0x7c>
    5270:	461e      	mov	r6, r3
    5272:	4622      	mov	r2, r4
    5274:	3a04      	subs	r2, #4
    5276:	2a03      	cmp	r2, #3
    5278:	f846 5b04 	str.w	r5, [r6], #4
    527c:	d8fa      	bhi.n	5274 <memset+0x64>
    527e:	1f22      	subs	r2, r4, #4
    5280:	f022 0203 	bic.w	r2, r2, #3
    5284:	3204      	adds	r2, #4
    5286:	4413      	add	r3, r2
    5288:	f004 0403 	and.w	r4, r4, #3
    528c:	b12c      	cbz	r4, 529a <memset+0x8a>
    528e:	b2c9      	uxtb	r1, r1
    5290:	441c      	add	r4, r3
    5292:	f803 1b01 	strb.w	r1, [r3], #1
    5296:	429c      	cmp	r4, r3
    5298:	d1fb      	bne.n	5292 <memset+0x82>
    529a:	bcf0      	pop	{r4, r5, r6, r7}
    529c:	4770      	bx	lr
    529e:	4614      	mov	r4, r2
    52a0:	4603      	mov	r3, r0
    52a2:	e7c5      	b.n	5230 <memset+0x20>

Disassembly of section .comment:

00000000 <.comment>:
   0:	3a434347 	bcc	10d0d24 <memset+0x10cbb14>
   4:	4e472820 	cdpmi	8, 4, cr2, cr7, cr0, {1}
   8:	6f542055 	svcvs	0x00542055
   c:	20736c6f 	rsbscs	r6, r3, pc, ror #24
  10:	20726f66 	rsbscs	r6, r2, r6, ror #30
  14:	206d7241 	rsbcs	r7, sp, r1, asr #4
  18:	65626d45 	strbvs	r6, [r2, #-3397]!	; 0xfffff2bb
  1c:	64656464 	strbtvs	r6, [r5], #-1124	; 0xfffffb9c
  20:	6f725020 	svcvs	0x00725020
  24:	73736563 	cmnvc	r3, #415236096	; 0x18c00000
  28:	2073726f 	rsbscs	r7, r3, pc, ror #4
  2c:	30322d37 	eorscc	r2, r2, r7, lsr sp
  30:	712d3831 			; <UNDEFINED> instruction: 0x712d3831
  34:	70752d33 	rsbsvc	r2, r5, r3, lsr sp
  38:	65746164 	ldrbvs	r6, [r4, #-356]!	; 0xfffffe9c
  3c:	2e372029 	cdpcs	0, 3, cr2, cr7, cr9, {1}
  40:	20312e33 	eorscs	r2, r1, r3, lsr lr
  44:	38313032 	ldmdacc	r1!, {r1, r4, r5, ip, sp}
  48:	32323630 	eorscc	r3, r2, #48, 12	; 0x3000000
  4c:	65722820 	ldrbvs	r2, [r2, #-2080]!	; 0xfffff7e0
  50:	7361656c 	cmnvc	r1, #108, 10	; 0x1b000000
  54:	5b202965 	blpl	80a5f0 <memset+0x8053e0>
  58:	2f4d5241 	svccs	0x004d5241
  5c:	65626d65 	strbvs	r6, [r2, #-3429]!	; 0xfffff29b
  60:	64656464 	strbtvs	r6, [r5], #-1124	; 0xfffffb9c
  64:	622d372d 	eorvs	r3, sp, #11796480	; 0xb40000
  68:	636e6172 	cmnvs	lr, #-2147483620	; 0x8000001c
  6c:	65722068 	ldrbvs	r2, [r2, #-104]!	; 0xffffff98
  70:	69736976 	ldmdbvs	r3!, {r1, r2, r4, r5, r6, r8, fp, sp, lr}^
  74:	32206e6f 	eorcc	r6, r0, #1776	; 0x6f0
  78:	30393136 	eorscc	r3, r9, r6, lsr r1
  7c:	Address 0x000000000000007c is out of bounds.


Disassembly of section .ARM.attributes:

00000000 <.ARM.attributes>:
   0:	00003641 	andeq	r3, r0, r1, asr #12
   4:	61656100 	cmnvs	r5, r0, lsl #2
   8:	01006962 	tsteq	r0, r2, ror #18
   c:	0000002c 	andeq	r0, r0, ip, lsr #32
  10:	726f4305 	rsbvc	r4, pc, #335544320	; 0x14000000
  14:	2d786574 	cfldr64cs	mvdx6, [r8, #-464]!	; 0xfffffe30
  18:	0600344d 	streq	r3, [r0], -sp, asr #8
  1c:	094d070d 	stmdbeq	sp, {r0, r2, r3, r8, r9, sl}^
  20:	12060a02 	andne	r0, r6, #8192	; 0x2000
  24:	15011404 	strne	r1, [r1, #-1028]	; 0xfffffbfc
  28:	18031701 	stmdane	r3, {r0, r8, r9, sl, ip}
  2c:	1b011a01 	blne	46838 <memset+0x41628>
  30:	1e011c01 	cdpne	12, 0, cr1, cr1, cr1, {0}
  34:	Address 0x0000000000000034 is out of bounds.


Disassembly of section .debug_frame:

00000000 <.debug_frame>:
   0:	0000000c 	andeq	r0, r0, ip
   4:	ffffffff 			; <UNDEFINED> instruction: 0xffffffff
   8:	7c020001 	stcvc	0, cr0, [r2], {1}
   c:	000d0c0e 	andeq	r0, sp, lr, lsl #24
  10:	00000030 	andeq	r0, r0, r0, lsr r0
  14:	00000000 	andeq	r0, r0, r0
  18:	0000417c 	andeq	r4, r0, ip, ror r1
  1c:	0000003c 	andeq	r0, r0, ip, lsr r0
  20:	83080e41 	movwhi	r0, #36417	; 0x8e41
  24:	42018e02 	andmi	r8, r1, #2, 28
  28:	5005100e 	andpl	r1, r5, lr
  2c:	03510504 	cmpeq	r1, #4, 10	; 0x1000000
  30:	50060a4b 	andpl	r0, r6, fp, asr #20
  34:	080e5106 	stmdaeq	lr, {r1, r2, r8, ip, lr}
  38:	064e0b41 	strbeq	r0, [lr], -r1, asr #22
  3c:	0e510650 	mrceq	6, 2, r0, cr1, cr0, {2}
  40:	00000008 	andeq	r0, r0, r8
  44:	0000000c 	andeq	r0, r0, ip
  48:	ffffffff 			; <UNDEFINED> instruction: 0xffffffff
  4c:	7c020001 	stcvc	0, cr0, [r2], {1}
  50:	000d0c0e 	andeq	r0, sp, lr, lsl #24
  54:	00000030 	andeq	r0, r0, r0, lsr r0
  58:	00000044 	andeq	r0, r0, r4, asr #32
  5c:	000041b8 			; <UNDEFINED> instruction: 0x000041b8
  60:	0000003c 	andeq	r0, r0, ip, lsr r0
  64:	83080e41 	movwhi	r0, #36417	; 0x8e41
  68:	42018e02 	andmi	r8, r1, #2, 28
  6c:	5005100e 	andpl	r1, r5, lr
  70:	03510504 	cmpeq	r1, #4, 10	; 0x1000000
  74:	50060a4b 	andpl	r0, r6, fp, asr #20
  78:	080e5106 	stmdaeq	lr, {r1, r2, r8, ip, lr}
  7c:	064e0b41 	strbeq	r0, [lr], -r1, asr #22
  80:	0e510650 	mrceq	6, 2, r0, cr1, cr0, {2}
  84:	00000008 	andeq	r0, r0, r8
  88:	0000000c 	andeq	r0, r0, ip
  8c:	ffffffff 			; <UNDEFINED> instruction: 0xffffffff
  90:	7c020001 	stcvc	0, cr0, [r2], {1}
  94:	000d0c0e 	andeq	r0, sp, lr, lsl #24
  98:	0000000c 	andeq	r0, r0, ip
  9c:	00000088 	andeq	r0, r0, r8, lsl #1
  a0:	000041f4 	strdeq	r4, [r0], -r4	; <UNPREDICTABLE>
  a4:	00000038 	andeq	r0, r0, r8, lsr r0
  a8:	0000000c 	andeq	r0, r0, ip
  ac:	ffffffff 			; <UNDEFINED> instruction: 0xffffffff
  b0:	7c020001 	stcvc	0, cr0, [r2], {1}
  b4:	000d0c0e 	andeq	r0, sp, lr, lsl #24
  b8:	00000018 	andeq	r0, r0, r8, lsl r0
  bc:	000000a8 	andeq	r0, r0, r8, lsr #1
  c0:	0000422c 	andeq	r4, r0, ip, lsr #4
  c4:	00000054 	andeq	r0, r0, r4, asr r0
  c8:	84040e45 	strhi	r0, [r4], #-3653	; 0xfffff1bb
  cc:	0ec46201 	cdpeq	2, 12, cr6, cr4, cr1, {0}
  d0:	00000000 	andeq	r0, r0, r0
  d4:	0000000c 	andeq	r0, r0, ip
  d8:	ffffffff 			; <UNDEFINED> instruction: 0xffffffff
  dc:	7c020001 	stcvc	0, cr0, [r2], {1}
  e0:	000d0c0e 	andeq	r0, sp, lr, lsl #24
  e4:	00000030 	andeq	r0, r0, r0, lsr r0
  e8:	000000d4 	ldrdeq	r0, [r0], -r4
  ec:	00004280 	andeq	r4, r0, r0, lsl #5
  f0:	00000056 	andeq	r0, r0, r6, asr r0
  f4:	84080e41 	strhi	r0, [r8], #-3649	; 0xfffff1bf
  f8:	42018e02 	andmi	r8, r1, #2, 28
  fc:	5005100e 	andpl	r1, r5, lr
 100:	03510504 	cmpeq	r1, #4, 10	; 0x1000000
 104:	50060a4f 	andpl	r0, r6, pc, asr #20
 108:	080e5106 	stmdaeq	lr, {r1, r2, r8, ip, lr}
 10c:	06550b41 	ldrbeq	r0, [r5], -r1, asr #22
 110:	0e510650 	mrceq	6, 2, r0, cr1, cr0, {2}
 114:	00000008 	andeq	r0, r0, r8
 118:	0000000c 	andeq	r0, r0, ip
 11c:	ffffffff 			; <UNDEFINED> instruction: 0xffffffff
 120:	7c020001 	stcvc	0, cr0, [r2], {1}
 124:	000d0c0e 	andeq	r0, sp, lr, lsl #24
 128:	00000020 	andeq	r0, r0, r0, lsr #32
 12c:	00000118 	andeq	r0, r0, r8, lsl r1
 130:	000042d8 	ldrdeq	r4, [r0], -r8
 134:	00000060 	andeq	r0, r0, r0, rrx
 138:	5b080e41 	blpl	203a44 <memset+0x1fe834>
 13c:	41000e0a 	tstmi	r0, sl, lsl #28
 140:	0e0a490b 	vmlaeq.f16	s8, s20, s22	; <UNPREDICTABLE>
 144:	450b4100 	strmi	r4, [fp, #-256]	; 0xffffff00
 148:	0000000e 	andeq	r0, r0, lr
 14c:	0000000c 	andeq	r0, r0, ip
 150:	ffffffff 			; <UNDEFINED> instruction: 0xffffffff
 154:	7c020001 	stcvc	0, cr0, [r2], {1}
 158:	000d0c0e 	andeq	r0, sp, lr, lsl #24
 15c:	00000030 	andeq	r0, r0, r0, lsr r0
 160:	0000014c 	andeq	r0, r0, ip, asr #2
 164:	00004338 	andeq	r4, r0, r8, lsr r3
 168:	000000d0 	ldrdeq	r0, [r0], -r0	; <UNPREDICTABLE>
 16c:	83080e41 	movwhi	r0, #36417	; 0x8e41
 170:	46018e02 	strmi	r8, [r1], -r2, lsl #28
 174:	5005100e 	andpl	r1, r5, lr
 178:	03510504 	cmpeq	r1, #4, 10	; 0x1000000
 17c:	50060a55 	andpl	r0, r6, r5, asr sl
 180:	080e5106 	stmdaeq	lr, {r1, r2, r8, ip, lr}
 184:	0a420b41 	beq	1082e90 <memset+0x107dc80>
 188:	51065006 	tstpl	r6, r6
 18c:	0b43080e 	bleq	10c21cc <memset+0x10bcfbc>
 190:	0000000c 	andeq	r0, r0, ip
 194:	ffffffff 			; <UNDEFINED> instruction: 0xffffffff
 198:	7c020001 	stcvc	0, cr0, [r2], {1}
 19c:	000d0c0e 	andeq	r0, sp, lr, lsl #24
 1a0:	00000020 	andeq	r0, r0, r0, lsr #32
 1a4:	00000190 	muleq	r0, r0, r1
 1a8:	00004408 	andeq	r4, r0, r8, lsl #8
 1ac:	00000094 	muleq	r0, r4, r0
 1b0:	8e040e41 	cdphi	14, 0, cr0, cr4, cr1, {2}
 1b4:	100e4701 	andne	r4, lr, r1, lsl #14
 1b8:	040e0a47 	streq	r0, [lr], #-2631	; 0xfffff5b9
 1bc:	0a590b42 	beq	1642ecc <memset+0x163dcbc>
 1c0:	0b42040e 	bleq	1081200 <memset+0x107bff0>
 1c4:	0000000c 	andeq	r0, r0, ip
 1c8:	ffffffff 			; <UNDEFINED> instruction: 0xffffffff
 1cc:	7c020001 	stcvc	0, cr0, [r2], {1}
 1d0:	000d0c0e 	andeq	r0, sp, lr, lsl #24
 1d4:	00000024 	andeq	r0, r0, r4, lsr #32
 1d8:	000001c4 	andeq	r0, r0, r4, asr #3
 1dc:	0000449c 	muleq	r0, ip, r4
 1e0:	0000005c 	andeq	r0, r0, ip, asr r0
 1e4:	8e040e41 	cdphi	14, 0, cr0, cr4, cr1, {2}
 1e8:	100e4701 	andne	r4, lr, r1, lsl #14
 1ec:	040e0a47 	streq	r0, [lr], #-2631	; 0xfffff5b9
 1f0:	0a4f0b42 	beq	13c2f00 <memset+0x13bdcf0>
 1f4:	0b42040e 	bleq	1081234 <memset+0x107c024>
 1f8:	00040e46 	andeq	r0, r4, r6, asr #28
 1fc:	0000000c 	andeq	r0, r0, ip
 200:	ffffffff 			; <UNDEFINED> instruction: 0xffffffff
 204:	7c020001 	stcvc	0, cr0, [r2], {1}
 208:	000d0c0e 	andeq	r0, sp, lr, lsl #24
 20c:	00000028 	andeq	r0, r0, r8, lsr #32
 210:	000001fc 	strdeq	r0, [r0], -ip
 214:	000044f8 	strdeq	r4, [r0], -r8
 218:	00000298 	muleq	r0, r8, r2
 21c:	84100e41 	ldrhi	r0, [r0], #-3649	; 0xfffff1bf
 220:	86038504 	strhi	r8, [r3], -r4, lsl #10
 224:	47018e02 	strmi	r8, [r1, -r2, lsl #28]
 228:	0a61280e 	beq	184a268 <memset+0x1845058>
 22c:	0b41100e 	bleq	104426c <memset+0x103f05c>
 230:	0e0a5002 	cdpeq	0, 0, cr5, cr10, cr2, {0}
 234:	000b4110 	andeq	r4, fp, r0, lsl r1
 238:	0000000c 	andeq	r0, r0, ip
 23c:	ffffffff 			; <UNDEFINED> instruction: 0xffffffff
 240:	7c020001 	stcvc	0, cr0, [r2], {1}
 244:	000d0c0e 	andeq	r0, sp, lr, lsl #24
 248:	0000000c 	andeq	r0, r0, ip
 24c:	00000238 	andeq	r0, r0, r8, lsr r2
 250:	00004790 	muleq	r0, r0, r7
 254:	00000104 	andeq	r0, r0, r4, lsl #2
 258:	0000000c 	andeq	r0, r0, ip
 25c:	ffffffff 			; <UNDEFINED> instruction: 0xffffffff
 260:	7c020001 	stcvc	0, cr0, [r2], {1}
 264:	000d0c0e 	andeq	r0, sp, lr, lsl #24
 268:	00000048 	andeq	r0, r0, r8, asr #32
 26c:	00000258 	andeq	r0, r0, r8, asr r2
 270:	00004894 	muleq	r0, r4, r8
 274:	00000650 	andeq	r0, r0, r0, asr r6
 278:	84240e42 	strthi	r0, [r4], #-3650	; 0xfffff1be
 27c:	86088509 	strhi	r8, [r8], -r9, lsl #10
 280:	88068707 	stmdahi	r6, {r0, r1, r2, r8, r9, sl, pc}
 284:	8a048905 	bhi	1226a0 <memset+0x11d490>
 288:	8e028b03 	vmlahi.f64	d8, d2, d3
 28c:	340e4201 	strcc	r4, [lr], #-513	; 0xfffffdff
 290:	050d5005 	streq	r5, [sp, #-5]
 294:	52050c51 	andpl	r0, r5, #20736	; 0x5100
 298:	0a53050b 	beq	14c16cc <memset+0x14bc4bc>
 29c:	03900e41 	orrseq	r0, r0, #1040	; 0x410
 2a0:	0a025103 	beq	946b4 <memset+0x8f4a4>
 2a4:	0642340e 	strbeq	r3, [r2], -lr, lsl #8
 2a8:	06530652 			; <UNDEFINED> instruction: 0x06530652
 2ac:	0e510650 	mrceq	6, 2, r0, cr1, cr0, {2}
 2b0:	000b4224 	andeq	r4, fp, r4, lsr #4
 2b4:	0000000c 	andeq	r0, r0, ip
 2b8:	ffffffff 			; <UNDEFINED> instruction: 0xffffffff
 2bc:	7c020001 	stcvc	0, cr0, [r2], {1}
 2c0:	000d0c0e 	andeq	r0, sp, lr, lsl #24
 2c4:	0000000c 	andeq	r0, r0, ip
 2c8:	000002b4 			; <UNDEFINED> instruction: 0x000002b4
 2cc:	00004ee4 	andeq	r4, r0, r4, ror #29
 2d0:	00000090 	muleq	r0, r0, r0
 2d4:	0000000c 	andeq	r0, r0, ip
 2d8:	ffffffff 			; <UNDEFINED> instruction: 0xffffffff
 2dc:	7c020001 	stcvc	0, cr0, [r2], {1}
 2e0:	000d0c0e 	andeq	r0, sp, lr, lsl #24
 2e4:	0000003c 	andeq	r0, r0, ip, lsr r0
 2e8:	000002d4 	ldrdeq	r0, [r0], -r4
 2ec:	00004f74 	andeq	r4, r0, r4, ror pc
 2f0:	000001c8 	andeq	r0, r0, r8, asr #3
 2f4:	83080e41 	movwhi	r0, #36417	; 0x8e41
 2f8:	48018e02 	stmdami	r1, {r1, r9, sl, fp, pc}
 2fc:	5005100e 	andpl	r1, r5, lr
 300:	03510504 	cmpeq	r1, #4, 10	; 0x1000000
 304:	50060a50 	andpl	r0, r6, r0, asr sl
 308:	080e5106 	stmdaeq	lr, {r1, r2, r8, ip, lr}
 30c:	79020b45 	stmdbvc	r2, {r0, r2, r6, r8, r9, fp}
 310:	0650060a 	ldrbeq	r0, [r0], -sl, lsl #12
 314:	41080e51 	tstmi	r8, r1, asr lr
 318:	060a510b 	streq	r5, [sl], -fp, lsl #2
 31c:	0e510650 	mrceq	6, 2, r0, cr1, cr0, {2}
 320:	000b4f08 	andeq	r4, fp, r8, lsl #30
 324:	0000000c 	andeq	r0, r0, ip
 328:	ffffffff 			; <UNDEFINED> instruction: 0xffffffff
 32c:	7c020001 	stcvc	0, cr0, [r2], {1}
 330:	000d0c0e 	andeq	r0, sp, lr, lsl #24
 334:	0000000c 	andeq	r0, r0, ip
 338:	00000324 	andeq	r0, r0, r4, lsr #6
 33c:	0000513c 	andeq	r5, r0, ip, lsr r1
 340:	00000018 	andeq	r0, r0, r8, lsl r0
 344:	0000000c 	andeq	r0, r0, ip
 348:	ffffffff 			; <UNDEFINED> instruction: 0xffffffff
 34c:	7c020001 	stcvc	0, cr0, [r2], {1}
 350:	000d0c0e 	andeq	r0, sp, lr, lsl #24
 354:	0000000c 	andeq	r0, r0, ip
 358:	00000344 	andeq	r0, r0, r4, asr #6
 35c:	00005154 	andeq	r5, r0, r4, asr r1
 360:	0000000e 	andeq	r0, r0, lr
 364:	0000000c 	andeq	r0, r0, ip
 368:	ffffffff 			; <UNDEFINED> instruction: 0xffffffff
 36c:	7c020001 	stcvc	0, cr0, [r2], {1}
 370:	000d0c0e 	andeq	r0, sp, lr, lsl #24
 374:	0000000c 	andeq	r0, r0, ip
 378:	00000364 	andeq	r0, r0, r4, ror #6
 37c:	00005164 	andeq	r5, r0, r4, ror #2
 380:	00000014 	andeq	r0, r0, r4, lsl r0
 384:	0000000c 	andeq	r0, r0, ip
 388:	ffffffff 			; <UNDEFINED> instruction: 0xffffffff
 38c:	7c020001 	stcvc	0, cr0, [r2], {1}
 390:	000d0c0e 	andeq	r0, sp, lr, lsl #24
 394:	0000000c 	andeq	r0, r0, ip
 398:	00000384 	andeq	r0, r0, r4, lsl #7
 39c:	00005178 	andeq	r5, r0, r8, ror r1
 3a0:	0000008c 	andeq	r0, r0, ip, lsl #1
 3a4:	0000000c 	andeq	r0, r0, ip
 3a8:	ffffffff 			; <UNDEFINED> instruction: 0xffffffff
 3ac:	7c020001 	stcvc	0, cr0, [r2], {1}
 3b0:	000d0c0e 	andeq	r0, sp, lr, lsl #24
 3b4:	0000000c 	andeq	r0, r0, ip
 3b8:	000003a4 	andeq	r0, r0, r4, lsr #7
 3bc:	00005204 	andeq	r5, r0, r4, lsl #4
 3c0:	0000000c 	andeq	r0, r0, ip
 3c4:	0000000c 	andeq	r0, r0, ip
 3c8:	ffffffff 			; <UNDEFINED> instruction: 0xffffffff
 3cc:	7c020001 	stcvc	0, cr0, [r2], {1}
 3d0:	000d0c0e 	andeq	r0, sp, lr, lsl #24
 3d4:	00000024 	andeq	r0, r0, r4, lsr #32
 3d8:	000003c4 	andeq	r0, r0, r4, asr #7
 3dc:	00005210 	andeq	r5, r0, r0, lsl r2
 3e0:	00000094 	muleq	r0, r4, r0
 3e4:	84100e41 	ldrhi	r0, [r0], #-3649	; 0xfffff1bf
 3e8:	86038504 	strhi	r8, [r3], -r4, lsl #10
 3ec:	02018702 	andeq	r8, r1, #524288	; 0x80000
 3f0:	c6c70a45 	strbgt	r0, [r7], r5, asr #20
 3f4:	000ec4c5 	andeq	ip, lr, r5, asr #9
 3f8:	00000b41 	andeq	r0, r0, r1, asr #22
